(lp1
(dp2
I1
(lp3
(lp4
S'jazz'
p5
aS'rainy'
p6
aS'afternoon'
p7
aa(lp8
aI0
aI0
aI0
aI1
aS'oklahoma'
p9
asI2
(lp10
(lp11
S'love'
p12
aS'rainy'
p13
aS'days'
p14
aa(lp15
aI0
aI1
aI1
aI0
aS'florida'
p16
asI3
(lp17
(lp18
S'good'
p19
aS'morning'
p20
aS'chicago'
p21
aS'time'
p22
aS'kick'
p23
aS'windy'
p24
aS'city'
p25
aS'nuts'
p26
aS'head'
p27
aS'back'
p28
aS'west'
p29
aa(lp30
aI0
aI0
aI0
aI0
aS'idaho'
p31
asI6
(lp32
(lp33
S'preach'
p34
aS'lol'
p35
aS'alliwantis'
p36
aS'type'
p37
aS'weather'
p38
aS'time'
p39
aS'live'
p40
aS'beautiful'
p41
aS'days'
p42
aS'like'
p43
aS'minneapolis'
p44
aa(lp45
S'alliwantis'
p46
aS'minneapolis'
p47
aaI1
aI1
aI1
aI0
aS'minnesota'
p48
asI9
(lp49
(lp50
S'good'
p51
aS'morning'
p52
aS'sunshine'
p53
aa(lp54
aI0
aI1
aI0
aI0
aS'rhode island'
p55
asI10
(lp56
(lp57
S'rather'
p58
aS'storm'
p59
aS'chasing'
p60
aa(lp61
aI0
aI0
aI0
aI0
aS'district of columbia'
p62
asI11
(lp63
(lp64
S'weather'
p65
aS'pm'
p66
aS'feels'
p67
aS'humidity'
p68
aS'mph'
p69
aS'east'
p70
aS'wind'
p71
aa(lp72
S'weather'
p73
aaI1
aI0
aI0
aI0
aS'michigan'
p74
asI13
(lp75
(lp76
S'father'
p77
aS'son'
p78
aS'holy'
p79
aS'ghost'
p80
aS'amen'
p81
aS'hope'
p82
aS'come'
p83
aS'alive'
p84
aS'hotness'
p85
aS'namaste'
p86
aa(lp87
aI0
aI0
aI0
aI1
aS'connecticut'
p88
asI14
(lp89
(lp90
S'mild'
p91
aS'monday'
p92
aS'best'
p93
aS'weather'
p94
aS'day'
p95
aS'week'
p96
aS'oklahoma'
p97
aS'okwx'
p98
aa(lp99
S'okwx'
p100
aaI1
aI0
aI0
aI1
aS'oklahoma'
p101
asI15
(lp102
(lp103
S'with'
p104
aS'snow'
p105
aS'forecast'
p106
aS'tahoe'
p107
aS'weekend'
p108
aS'maybe'
p109
aS'riders'
p110
aS'need'
p111
aS'bust'
p112
aS'cross'
p113
aS'bikes'
p114
aa(lp115
aI0
aI1
aI0
aI0
aS'california'
p116
asI16
(lp117
(lp118
S'no'
p119
aS'signs'
p120
aS'appocolypse'
p121
aS'yet'
p122
aS'sunshine'
p123
aS'warm'
p124
aS'weather'
p125
aa(lp126
aI0
aI0
aI0
aI0
aS'kansas'
p127
asI17
(lp128
(lp129
S'outside'
p130
aS'humidity'
p131
aS'wind'
p132
aS'mph'
p133
aS'press'
p134
aS'rain'
p135
aa(lp136
aI0
aI0
aI0
aI0
aS'new mexico'
p137
asI18
(lp138
(lp139
S'another'
p140
aS'storm'
p141
aS'at'
p142
aS'least'
p143
aS'getting'
p144
aS'rain'
p145
aS'how'
p146
aS'bad'
p147
aS'one'
p148
aa(lp149
aI0
aI1
aI0
aI0
aS'texas'
p150
asI21
(lp151
(lp152
S'rainy'
p153
aS'afternoons'
p154
aS'great'
p155
aS'hot'
p156
aS'broccoli'
p157
aS'cheese'
p158
aS'soup'
p159
aa(lp160
aI0
aI1
aI1
aI0
aS'north carolina'
p161
asI23
(lp162
(lp163
S'can'
p164
aS'already'
p165
aS'tell'
p166
aS'going'
p167
aS'tough'
p168
aS'scoring'
p169
aS'day'
p170
aS'its'
p171
aS'windy'
p172
aS'right'
p173
aS'yesterday'
p174
aS'afternoon'
p175
aa(lp176
aI0
aI0
aI0
aI0
aS'south carolina'
p177
asI24
(lp178
(lp179
S'lil'
p180
aS'chilly'
p181
aS'good'
p182
aS'words'
p183
aS'call'
p184
aS'of'
p185
aS'duty'
p186
aa(lp187
aI0
aI0
aI0
aI0
aS'indiana'
p188
asI25
(lp189
(lp190
S'loving'
p191
aS'sugarland'
p192
aS'concert'
p193
aS'even'
p194
aS'though'
p195
aS'im'
p196
aS'soaking'
p197
aS'wet'
p198
aS'freezing'
p199
aS'lol'
p200
aa(lp201
aI0
aI0
aI0
aI0
aS'pennsylvania'
p202
asI28
(lp203
(lp204
S'im'
p205
aS'gonna'
p206
aS'big'
p207
aS'things'
p208
aS'today'
p209
aS'running'
p210
aS'shit'
p211
aS'weather'
p212
aS'writing'
p213
aS'essay'
p214
aS'nature'
p215
aa(lp216
aI0
aI0
aI0
aI0
aS'maryland'
p217
asI30
(lp218
(lp219
S'today'
p220
aS'windy'
p221
aS'af'
p222
aS'dont'
p223
aS'wanna'
p224
aS'go'
p225
aS'meet'
p226
aS'get'
p227
aS'sis'
p228
aS'school'
p229
aa(lp230
aI0
aI1
aI0
aI0
aS'arizona'
p231
asI31
(lp232
(lp233
S'damnhomie'
p234
aS'perfect'
p235
aS'weather'
p236
aS'goin'
p237
aS'florida'
p238
aa(lp239
aI0
aI1
aI0
aI0
aS'maryland'
p240
asI32
(lp241
(lp242
S'also'
p243
aS'cant'
p244
aS'ever'
p245
aS'live'
p246
aS'someone'
p247
aS'arizona'
p248
aS'how'
p249
aS'fuck'
p250
aS'live'
p251
aS'apartment'
p252
aS'degrees'
p253
aa(lp254
aI0
aI0
aI0
aI0
aS'arizona'
p255
asI34
(lp256
(lp257
S'it'
p258
aS'degrees'
p259
aS'yesterday'
p260
aS'ready'
p261
aS'heat'
p262
aS'san'
p263
aS'diego'
p264
aS'sounds'
p265
aS'good'
p266
aS'right'
p267
aa(lp268
aI0
aI0
aI0
aI0
aS'arizona'
p269
asI36
(lp270
(lp271
S'current'
p272
aS'weather'
p273
aS'kennedy'
p274
aS'space'
p275
aS'center'
p276
aS'go'
p277
aS'across'
p278
aS'board'
p279
aS'sts'
p280
aS'launch'
p281
aS'eastern'
p282
aa(lp283
S'sts'
p284
aaI1
aI0
aI0
aI1
aS'oklahoma'
p285
asI37
(lp286
(lp287
S'cold'
p288
aS'cloudy'
p289
aS'rainy'
p290
aa(lp291
aI0
aI1
aI0
aI0
aS'delaware'
p292
asI38
(lp293
(lp294
S'cold'
p295
aS'kinda'
p296
aS'damp'
p297
aS'losing'
p298
aS'house'
p299
aS'auction'
p300
aS'next'
p301
aS'month'
p302
aS'gives'
p303
aS'good'
p304
aS'reason'
p305
aS'go'
p306
aS'defeated'
p307
aa(lp308
S'defeated'
p309
aaI1
aI1
aI0
aI0
aS'kansas'
p310
asI41
(lp311
(lp312
S'all'
p313
aS'week'
p314
aS'cuddle'
p315
aS'weather'
p316
aa(lp317
aI0
aI1
aI1
aI0
aS'virginia'
p318
asI42
(lp319
(lp320
S'work'
p321
aS'week'
p322
aS'finals'
p323
aS'dinner'
p324
aS'eaten'
p325
aS'hot'
p326
aS'outside'
p327
aS'time'
p328
aS'paint'
p329
aS'new'
p330
aS'nusery'
p331
aS'underwear'
p332
aS'iruinlessclothesthatway'
p333
aa(lp334
S'iruinlessclothesthatway'
p335
aaI1
aI0
aI0
aI0
aS'virginia'
p336
asI44
(lp337
(lp338
S'right'
p339
aS'biggest'
p340
aS'storm'
p341
aS'year'
p342
aS'far'
p343
aS'whogivesashit'
p344
aS'dlist'
p345
aS'losers'
p346
aS'dancing'
p347
aS'safety'
p348
aS'wfaa'
p349
aS'safety'
p350
aS'team'
p351
aa(lp352
S'whogivesashit'
p353
aaI1
aI1
aI0
aI0
aS'texas'
p354
asI46
(lp355
(lp356
S'hope'
p357
aS'weather'
p358
aS'clears'
p359
aS'party'
p360
aS'tonight'
p361
aS'gtgt'
p362
aS'party'
p363
aS'tonite'
p364
aa(lp365
aI0
aI1
aI1
aI0
aS'new york'
p366
asI47
(lp367
(lp368
S'lol'
p369
aS'yeah'
p370
aS'hot'
p371
aS'outside'
p372
aS'fuck'
p373
aS'watchers'
p374
aS'ima'
p375
aS'give'
p376
aS'em'
p377
aS'show'
p378
aS'tryna'
p379
aS'get'
p380
aS'followers'
p381
aS'back'
p382
aa(lp383
aI0
aI1
aI0
aI0
aS'north dakota'
p384
asI48
(lp385
(lp386
S'thoughts'
p387
aS'climate'
p388
aS'change'
p389
aS'recent'
p390
aS'xtreme'
p391
aS'weather'
p392
aS'events'
p393
aa(lp394
aI0
aI0
aI0
aI1
aS'texas'
p395
asI49
(lp396
(lp397
S'real'
p398
aS'friends'
p399
aS'rarenot'
p400
aS'fair'
p401
aS'weather'
p402
aS'friends'
p403
aS'around'
p404
aS'sun'
p405
aS'shining'
p406
aa(lp407
aI0
aI1
aI0
aI0
aS'oregon'
p408
asI50
(lp409
(lp410
S'weather'
p411
aS'feels'
p412
aS'humidity'
p413
aS'mph'
p414
aS'east'
p415
aS'wind'
p416
aa(lp417
S'weather'
p418
aaI1
aI0
aI0
aI0
aS'north carolina'
p419
asI51
(lp420
(lp421
S'love'
p422
aS'sunshine'
p423
aa(lp424
aI0
aI1
aI0
aI0
aS'alabama'
p425
asI52
(lp426
(lp427
S'we'
p428
aS'crowds'
p429
aS'assembled'
p430
aS'start'
p431
aS'sale'
p432
aS'stop'
p433
aS'weather'
p434
aS'lovely'
p435
aS'selection'
p436
aS'good'
p437
aa(lp438
aI0
aI0
aI0
aI0
aS'ohio'
p439
asI53
(lp440
(lp441
S'this'
p442
aS'weather'
p443
aS'really'
p444
aS'putting'
p445
aS'damper'
p446
aS'bullhawkwheel'
p447
aS'today'
p448
aa(lp449
S'bullhawkwheel'
p450
aaI1
aI0
aI0
aI0
aS'kansas'
p451
asI54
(lp452
(lp453
S'my'
p454
aS'body'
p455
aS'sore'
p456
aS'might'
p457
aS'getting'
p458
aS'sick'
p459
aS'oh'
p460
aS'well'
p461
aS'wouldnt'
p462
aS'mind'
p463
aS'getting'
p464
aS'sick'
p465
aS'rainy'
p466
aS'day'
p467
aS'relaxin'
p468
aa(lp469
S'relaxin'
p470
aaI1
aI0
aI0
aI0
aS'rhode island'
p471
asI56
(lp472
(lp473
S'patio'
p474
aS'weather'
p475
aa(lp476
aI0
aI0
aI0
aI0
aS'michigan'
p477
asI58
(lp478
(lp479
S'house'
p480
aS'stone'
p481
aS'cold'
p482
aS'colder'
p483
aS'outside'
p484
aa(lp485
aI0
aI0
aI0
aI0
aS'kentucky'
p486
asI60
(lp487
(lp488
S'weather'
p489
aS'channel'
p490
aS'last'
p491
aS'friday'
p492
aS'chance'
p493
aS'rain'
p494
aS'th'
p495
aS'weather'
p496
aS'channel'
p497
aS'today'
p498
aS'chance'
p499
aS'showers'
p500
aS'shouldhavebeenaweatherman'
p501
aa(lp502
S'shouldhavebeenaweatherman'
p503
aaI1
aI0
aI0
aI0
aS'pennsylvania'
p504
asI62
(lp505
(lp506
S'critical'
p507
aS'fire'
p508
aS'weather'
p509
aS'conditions'
p510
aS'expected'
p511
aS'friday'
p512
aS'afternoon'
p513
aS'red'
p514
aS'flag'
p515
aS'warning'
p516
aS'conditions'
p517
aS'are'
p518
aS'possible'
p519
aS'this'
p520
aS'afterno'
p521
aa(lp522
aI0
aI0
aI0
aI1
aS'kansas'
p523
asI63
(lp524
(lp525
S'new'
p526
aS'event'
p527
aS'severe'
p528
aS'thunderstorm'
p529
aS'warning'
p530
aS'pm'
p531
aS'pm'
p532
aS'edt'
p533
aS'vinton'
p534
aS'county'
p535
aS'read'
p536
aa(lp537
aI0
aI0
aI0
aI1
aS'west virginia'
p538
asI64
(lp539
(lp540
S'absolutely'
p541
aS'love'
p542
aS'thunderstorms'
p543
aa(lp544
aI0
aI1
aI1
aI0
aS'hawaii'
p545
asI66
(lp546
(lp547
S'hot'
p548
aa(lp549
aI0
aI0
aI0
aI0
aS'south carolina'
p550
asI68
(lp551
(lp552
S'right'
p553
aS'weather'
p554
aS'something'
p555
aS'else'
p556
aa(lp557
aI0
aI1
aI0
aI0
aS'kansas'
p558
asI69
(lp559
(lp560
S'crazy'
p561
aS'storm'
p562
aa(lp563
aI0
aI0
aI0
aI0
aS'maryland'
p564
asI70
(lp565
(lp566
S'weather'
p567
aS'feels'
p568
aS'humidity'
p569
aS'mph'
p570
aS'north'
p571
aS'wind'
p572
aa(lp573
S'weather'
p574
aaI1
aI0
aI0
aI0
aS'kentucky'
p575
asI72
(lp576
(lp577
S'may'
p578
aS'snow'
p579
aS'gees'
p580
aS'special'
p581
aS'thx'
p582
aS'dr'
p583
aS'farnsworth'
p584
aS'putting'
p585
aS'clinic'
p586
aS'yesterday'
p587
aS'learned'
p588
aS'lot'
p589
aa(lp590
aI0
aI0
aI0
aI0
aS'nevada'
p591
asI74
(lp592
(lp593
S'so'
p594
aS'between'
p595
aS'flooding'
p596
aS'storm'
p597
aS'damage'
p598
aS'etc'
p599
aS'anyone'
p600
aS'tipstools'
p601
aS'navigate'
p602
aS'road'
p603
aS'trip'
p604
aS'lams'
p605
aS'going'
p606
aS'sc'
p607
aS'tx'
p608
aa(lp609
aI0
aI0
aI0
aI0
aS'south carolina'
p610
asI75
(lp611
(lp612
S'top'
p613
aS'choice'
p614
aS'gt'
p615
aS'today'
p616
aS'awesome'
p617
aS'free'
p618
aS'comic'
p619
aS'books'
p620
aS'lunch'
p621
aS'mama'
p622
aS'sunshine'
p623
aS'djn'
p624
aS'via'
p625
aa(lp626
aI0
aI1
aI0
aI1
aS'alabama'
p627
asI76
(lp628
(lp629
S'ccak'
p630
aS'trail'
p631
aS'update'
p632
aS'archangel'
p633
aS'road'
p634
aS'matsu'
p635
aS'pm'
p636
aS'thu'
p637
aS'may'
p638
aS'snow'
p639
aS'column'
p640
aS'beginning'
p641
aS'break'
p642
aS'especia'
p643
aa(lp644
aI0
aI0
aI0
aI1
aS'alaska'
p645
asI77
(lp646
(lp647
S'im'
p648
aS'so'
p649
aS'happy'
p650
aS'getting'
p651
aS'race'
p652
aS'today'
p653
aS'goodness'
p654
aS'this'
p655
aS'humidity'
p656
aS'feels'
p657
aS'like'
p658
aS'july'
p659
aS'ill'
p660
aS'take'
p661
aS'sun'
p662
aS'vs'
p663
aS'rain'
p664
aS'though'
p665
aa(lp666
aI0
aI1
aI0
aI0
aS'new hampshire'
p667
asI78
(lp668
(lp669
S'gymtimegotta'
p670
aS'get'
p671
aS'summer'
p672
aS'comin'
p673
aS'quickjust'
p674
aS'wish'
p675
aS'weather'
p676
aS'would'
p677
aS'agree'
p678
aa(lp679
S'gymtimegotta'
p680
aS'summer'
p681
aaI1
aI0
aI0
aI0
aS'south dakota'
p682
asI79
(lp683
(lp684
S'off'
p685
aS'days'
p686
aS'back'
p687
aS'money'
p688
aS'today'
p689
aS'aint'
p690
aS'trippin'
p691
aS'sunshine'
p692
aS'next'
p693
aS'week'
p694
aS'wit'
p695
aa(lp696
aI0
aI1
aI0
aI0
aS'wisconsin'
p697
asI80
(lp698
(lp699
S'at'
p700
aS'work'
p701
aS'looking'
p702
aS'window'
p703
aS'stormimscared'
p704
aa(lp705
aI0
aI0
aI0
aI0
aS'missouri'
p706
asI81
(lp707
(lp708
S'charles'
p709
aS'barkley'
p710
aS'showed'
p711
aS'game'
p712
aS'wearing'
p713
aS'tshirt'
p714
aS'shorts'
p715
aS'he'
p716
aS'obviously'
p717
aS'doesnt'
p718
aS'watch'
p719
aS'weather'
p720
aS'channel'
p721
aa(lp722
aI0
aI0
aI0
aI0
aS'illinois'
p723
asI82
(lp724
(lp725
S'testing'
p726
aS'new'
p727
aS'onsite'
p728
aS'report'
p729
aS'system'
p730
aS'cgwa'
p731
aS'its'
p732
aS'windy'
p733
aS'yet'
p734
aS'today'
p735
aS'gorgewind'
p736
aa(lp737
S'gorgewind'
p738
aaI1
aI0
aI0
aI0
aS'oregon'
p739
asI84
(lp740
(lp741
S'hey'
p742
aS'sunshine'
p743
aS'so'
p744
aS'far'
p745
aS'good'
p746
aa(lp747
aI0
aI1
aI0
aI0
aS'wisconsin'
p748
asI85
(lp749
(lp750
S'im'
p751
aS'loving'
p752
aS'gloomy'
p753
aS'dallas'
p754
aS'weather'
p755
aa(lp756
aI0
aI0
aI0
aI0
aS'texas'
p757
asI91
(lp758
(lp759
S'tstorm'
p760
aS'watch'
p761
aS'parts'
p762
aS'south'
p763
aS'central'
p764
aS'texas'
p765
aS'pm'
p766
aS'this'
p767
aS'includes'
p768
aS'san'
p769
aS'antonio'
p770
aS'towards'
p771
aS'austindallas'
p772
aa(lp773
aI0
aI1
aI1
aI1
aS'texas'
p774
asI92
(lp775
(lp776
S'here'
p777
aS'comes'
p778
aS'thunderstorm'
p779
aa(lp780
aI0
aI0
aI0
aI0
aS'michigan'
p781
asI93
(lp782
(lp783
S'attention'
p784
aS'expectant'
p785
aS'mamas'
p786
aS'nokt'
p787
aS'giving'
p788
aS'away'
p789
aS'maternity'
p790
aS'tee'
p791
aS'perfect'
p792
aS'warm'
p793
aS'weather'
p794
aS'enter'
p795
aS'today'
p796
aa(lp797
aI0
aI0
aI0
aI1
aS'new hampshire'
p798
asI94
(lp799
(lp800
S'smiling'
p801
aS'slim'
p802
aS'girl'
p803
aS'naked'
p804
aS'in'
p805
aS'the'
p806
aS'snow'
p807
aa(lp808
aI0
aI0
aI0
aI1
aS'texas'
p809
asI95
(lp810
(lp811
S'last'
p812
aS'thing'
p813
aS'want'
p814
aS'postwork'
p815
aS'bootyshaking'
p816
aS'bootcamp'
p817
aS'degree'
p818
aS'weather'
p819
aS'but'
p820
aS'gotta'
p821
aS'practice'
p822
aS'preach'
p823
aa(lp824
aI0
aI0
aI0
aI0
aS'georgia'
p825
asI96
(lp826
(lp827
S'rainy'
p828
aS'day'
p829
aS'home'
p830
aS'sometimes'
p831
aS'doesnt'
p832
aS'get'
p833
aS'better'
p834
aa(lp835
aI0
aI0
aI0
aI0
aS'maine'
p836
asI97
(lp837
(lp838
S'windy'
p839
aS'day'
p840
aS'nola'
p841
aS'swim'
p842
aS'going'
p843
aS'washing'
p844
aS'machine'
p845
aS'stays'
p846
aS'windy'
p847
aa(lp848
aI0
aI0
aI0
aI1
aS'california'
p849
asI98
(lp850
(lp851
S'out'
p852
aS'enjoying'
p853
aS'hell'
p854
aS'weather'
p855
aa(lp856
aI0
aI0
aI0
aI0
aS'pennsylvania'
p857
asI99
(lp858
(lp859
S'poor'
p860
aS'chewie'
p861
aS'todays'
p862
aS'cool'
p863
aS'thing'
p864
aS'chewbacca'
p865
aS'hates'
p866
aS'shoveling'
p867
aS'snow'
p868
aa(lp869
aI0
aI1
aI1
aI1
aS'texas'
p870
asI101
(lp871
(lp872
S'seriously'
p873
aS'love'
p874
aS'person'
p875
aS'actually'
p876
aS'talked'
p877
aS'weather'
p878
aa(lp879
aI0
aI1
aI0
aI0
aS'rhode island'
p880
asI102
(lp881
(lp882
S'wow'
p883
aS'school'
p884
aS'loves'
p885
aS'pile'
p886
aS'homework'
p887
aS'soon'
p888
aS'weather'
p889
aS'gets'
p890
aS'nice'
p891
aa(lp892
aI0
aI0
aI0
aI0
aS'new york'
p893
asI104
(lp894
(lp895
S'rt'
p896
aS'high'
p897
aS'degrees'
p898
aS'today'
p899
aS'days'
p900
aS'ago'
p901
aS'high'
p902
aS'bullshxt'
p903
aS'brixx'
p904
aa(lp905
S'bullshxt'
p906
aaI1
aI1
aI1
aI0
aS'kentucky'
p907
asI105
(lp908
(lp909
S'new'
p910
aS'event'
p911
aS'severe'
p912
aS'thunderstorm'
p913
aS'warning'
p914
aS'pm'
p915
aS'pm'
p916
aS'cdt'
p917
aS'montgomery'
p918
aS'cou'
p919
aS'read'
p920
aa(lp921
aI0
aI0
aI0
aI1
aS'missouri'
p922
asI107
(lp923
(lp924
S'oh'
p925
aS'sunshine'
p926
aS'much'
p927
aS'ive'
p928
aS'missed'
p929
aS'great'
p930
aS'see'
p931
aa(lp932
aI0
aI0
aI0
aI0
aS'indiana'
p933
asI108
(lp934
(lp935
S'on'
p936
aS'way'
p937
aS'work'
p938
aS'half'
p939
aS'asleep'
p940
aS'thinkig'
p941
aS'cold'
p942
aa(lp943
aI0
aI0
aI0
aI0
aS'alabama'
p944
asI109
(lp945
(lp946
S'cabin'
p947
aS'fever'
p948
aS'heres'
p949
aS'list'
p950
aS'things'
p951
aS'san'
p952
aS'diego'
p953
aS'rainy'
p954
aS'day'
p955
aS'add'
p956
aS'fav'
p957
aS'activities'
p958
aa(lp959
aI0
aI1
aI1
aI1
aS'california'
p960
asI111
(lp961
(lp962
S'rain'
p963
aS'lightening'
p964
aS'thunder'
p965
aS'love'
p966
aS'storms'
p967
aa(lp968
aI0
aI0
aI0
aI0
aS'texas'
p969
asI112
(lp970
(lp971
S'sunshine'
p972
aS'leith'
p973
aS'gretna'
p974
aS'fc'
p975
aa(lp976
aI0
aI0
aI0
aI0
aS'louisiana'
p977
asI115
(lp978
(lp979
S'my'
p980
aS'client'
p981
aS'said'
p982
aS'cold'
p983
aS'outside'
p984
aS'girl'
p985
aS'puhlezz'
p986
aS'bur'
p987
aS'shyt'
p988
aa(lp989
aI0
aI0
aI0
aI0
aS'pennsylvania'
p990
asI117
(lp991
(lp992
S'love'
p993
aS'weather'
p994
aS'days'
p995
aS'schoool'
p996
aa(lp997
aI0
aI0
aI0
aI0
aS'ohio'
p998
asI119
(lp999
(lp1000
S'good'
p1001
aS'day'
p1002
aS'sunshine'
p1003
aS'sketchaway'
p1004
aS'via'
p1005
aS'front'
p1006
aS'page'
p1007
aS'treasury'
p1008
aa(lp1009
aI0
aI1
aI0
aI1
aS'colorado'
p1010
asI120
(lp1011
(lp1012
S'currently'
p1013
aS'working'
p1014
aS'melissa'
p1015
aS'joshs'
p1016
aS'engagement'
p1017
aS'photos'
p1018
aS'past'
p1019
aS'rainy'
p1020
aS'weekend'
p1021
aS'cant'
p1022
aS'wait'
p1023
aS'share'
p1024
aa(lp1025
aI0
aI0
aI0
aI0
aS'massachusetts'
p1026
asI121
(lp1027
(lp1028
S'dang'
p1029
aS'degrees'
p1030
aS'today'
p1031
aS'warm'
p1032
aS'spring'
p1033
aS'weather'
p1034
aa(lp1035
aI0
aI0
aI0
aI0
aS'georgia'
p1036
asI122
(lp1037
(lp1038
S'haarp'
p1039
aS'government'
p1040
aS'programs'
p1041
aS'puposely'
p1042
aS'causing'
p1043
aS'weather'
p1044
aS'disasters'
p1045
aS'science'
p1046
aa(lp1047
S'science'
p1048
aaI1
aI1
aI1
aI1
aS'hawaii'
p1049
asI124
(lp1050
(lp1051
S'weather'
p1052
aS'pm'
p1053
aS'feels'
p1054
aS'humidity'
p1055
aS'mph'
p1056
aS'south'
p1057
aS'wind'
p1058
aa(lp1059
S'weather'
p1060
aaI1
aI0
aI0
aI0
aS'nevada'
p1061
asI125
(lp1062
(lp1063
S'lazy'
p1064
aS'mighty'
p1065
aS'good'
p1066
aS'weather'
p1067
aS'lol'
p1068
aS'alrighty'
p1069
aS'wont'
p1070
aS'wearing'
p1071
aS'green'
p1072
aS'hat'
p1073
aS'though'
p1074
aa(lp1075
aI0
aI1
aI0
aI0
aS'district of columbia'
p1076
asI126
(lp1077
(lp1078
S'weather'
p1079
aS'beautiful'
p1080
aS'today'
p1081
aS'finally'
p1082
aS'rain'
p1083
aS'the'
p1084
aS'rents'
p1085
aS'great'
p1086
aS'getting'
p1087
aS'harbor'
p1088
aS'opened'
p1089
aS'hows'
p1090
aS'big'
p1091
aS'apple'
p1092
aa(lp1093
aI0
aI1
aI0
aI0
aS'maine'
p1094
asI130
(lp1095
(lp1096
S'this'
p1097
aS'perfect'
p1098
aS'weather'
p1099
aS'cuddling'
p1100
aa(lp1101
aI0
aI1
aI1
aI0
aS'georgia'
p1102
asI131
(lp1103
(lp1104
S'severe'
p1105
aS'thunderstorm'
p1106
aS'warning'
p1107
aS'chatham'
p1108
aS'nc'
p1109
aS'till'
p1110
aS'pm'
p1111
aS'edt'
p1112
aS'hail'
p1113
aS'strong'
p1114
aS'winds'
p1115
aS'likely'
p1116
aS'pittsboro'
p1117
aa(lp1118
S'pittsboro'
p1119
aaI1
aI0
aI0
aI0
aS'north carolina'
p1120
asI132
(lp1121
(lp1122
S'front'
p1123
aS'lawn'
p1124
aS'riverdale'
p1125
aS'country'
p1126
aS'school'
p1127
aS'shoots'
p1128
aS'day'
p1129
aS'admissions'
p1130
aS'video'
p1131
aS'supreme'
p1132
aS'weather'
p1133
aa(lp1134
aI0
aI1
aI0
aI1
aS'new hampshire'
p1135
asI133
(lp1136
(lp1137
S'agree'
p1138
aS'my'
p1139
aS'lawn'
p1140
aS'getting'
p1141
aS'tall'
p1142
aS'its'
p1143
aS'wet'
p1144
aS'cold'
p1145
aS'windyhot'
p1146
aS'perfectweather'
p1147
aa(lp1148
S'perfectweather'
p1149
aaI1
aI1
aI0
aI0
aS'idaho'
p1150
asI134
(lp1151
(lp1152
S'sunny'
p1153
aS'monday'
p1154
aa(lp1155
aI0
aI0
aI0
aI0
aS'north carolina'
p1156
asI135
(lp1157
(lp1158
S'sick'
p1159
aS'wearin'
p1160
aS'hoodie'
p1161
aS'one'
p1162
aS'day'
p1163
aS'next'
p1164
aS'day'
p1165
aS'wearin'
p1166
aS'flip'
p1167
aS'flops'
p1168
aS'bi'
p1169
aS'polar'
p1170
aS'weather'
p1171
aa(lp1172
S'bi'
p1173
aaI1
aI1
aI1
aI0
aS'mississippi'
p1174
asI136
(lp1175
(lp1176
S'another'
p1177
aS'sunny'
p1178
aS'day'
p1179
aa(lp1180
aI0
aI0
aI0
aI0
aS'alaska'
p1181
asI137
(lp1182
(lp1183
S'it'
p1184
aS'might'
p1185
aS'stop'
p1186
aS'tomorrow'
p1187
aS'we'
p1188
aS'havent'
p1189
aS'good'
p1190
aS'luck'
p1191
aS'weather'
p1192
aS'lately'
p1193
aS'plus'
p1194
aS'still'
p1195
aS'need'
p1196
aS'finish'
p1197
aS'patio'
p1198
aS'ugh'
p1199
aa(lp1200
aI0
aI1
aI0
aI0
aS'wyoming'
p1201
asI138
(lp1202
(lp1203
S'looks'
p1204
aS'like'
p1205
aS'another'
p1206
aS'rainy'
p1207
aS'day'
p1208
aS'pa'
p1209
aS'oh'
p1210
aS'well'
p1211
aa(lp1212
aI0
aI0
aI0
aI0
aS'pennsylvania'
p1213
asI139
(lp1214
(lp1215
S'want'
p1216
aS'move'
p1217
aS'sunny'
p1218
aS'hills'
p1219
aS'san'
p1220
aS'francisco'
p1221
aS'take'
p1222
aS'trips'
p1223
aS'venice'
p1224
aS'beach'
p1225
aS'visit'
p1226
aS'family'
p1227
aS'hollywood'
p1228
aS'hills'
p1229
aS'dreams'
p1230
aa(lp1231
S'dreams'
p1232
aaI1
aI0
aI0
aI0
aS'north carolina'
p1233
asI140
(lp1234
(lp1235
S'perfect'
p1236
aS'weather'
p1237
aS'record'
p1238
aS'demos'
p1239
aS'day'
p1240
aa(lp1241
aI0
aI0
aI0
aI0
aS'alabama'
p1242
asI141
(lp1243
(lp1244
S'no'
p1245
aS'snow'
p1246
aS'torrey'
p1247
aS'pines'
p1248
aS'state'
p1249
aS'beach'
p1250
aa(lp1251
aI0
aI0
aI0
aI1
aS'california'
p1252
asI142
(lp1253
(lp1254
S'pastor'
p1255
aS'using'
p1256
aS'personal'
p1257
aS'experience'
p1258
aS'help'
p1259
aS'others'
p1260
aS'weather'
p1261
aS'storm'
p1262
aS'umc'
p1263
aa(lp1264
S'umc'
p1265
aaI1
aI1
aI1
aI1
aS'tennessee'
p1266
asI143
(lp1267
(lp1268
S'how'
p1269
aS'hell'
p1270
aS'weather'
p1271
aS'change'
p1272
aS'like'
p1273
aa(lp1274
aI0
aI0
aI0
aI0
aS'ohio'
p1275
asI144
(lp1276
(lp1277
S'freakin'
p1278
aS'killin'
p1279
aS'audio'
p1280
aS'ustream'
p1281
aS'freezing'
p1282
aa(lp1283
aI0
aI0
aI0
aI0
aS'georgia'
p1284
asI146
(lp1285
(lp1286
S'it'
p1287
aS'actually'
p1288
aS'feel'
p1289
aS'like'
p1290
aS'memphis'
p1291
aS'weather'
p1292
aS'maybout'
p1293
aS'time'
p1294
aa(lp1295
aI0
aI0
aI0
aI0
aS'tennessee'
p1296
asI147
(lp1297
(lp1298
S'and'
p1299
aS'storms'
p1300
aS'adore'
p1301
aS'spring'
p1302
aS'need'
p1303
aS'storm'
p1304
aS'chasing'
p1305
aa(lp1306
aI0
aI1
aI0
aI0
aS'virginia'
p1307
asI148
(lp1308
(lp1309
S'currently'
p1310
aS'degrees'
p1311
aa(lp1312
aI0
aI0
aI0
aI0
aS'texas'
p1313
asI150
(lp1314
(lp1315
S'good'
p1316
aS'morning'
p1317
aS'hope'
p1318
aS'ur'
p1319
aS'great'
p1320
aS'day'
p1321
aS'beautiful'
p1322
aS'sunny'
p1323
aS'today'
p1324
aa(lp1325
aI0
aI1
aI0
aI0
aS'west virginia'
p1326
asI151
(lp1327
(lp1328
S'houston'
p1329
aS'weather'
p1330
aS'retire'
p1331
aS'to'
p1332
aS'texas'
p1333
aS'one'
p1334
aS'of'
p1335
aS'the'
p1336
aS'cheapest'
p1337
aS'states'
p1338
aS'to'
p1339
aS'retire'
p1340
aS'in'
p1341
aa(lp1342
aI0
aI0
aI0
aI1
aS'alaska'
p1343
asI152
(lp1344
(lp1345
S'loool'
p1346
aS'serious'
p1347
aS'confused'
p1348
aS'chick'
p1349
aS'this'
p1350
aS'chick'
p1351
aS'gotta'
p1352
aS'drugs'
p1353
aS'degrees'
p1354
aS'rockin'
p1355
aS'boots'
p1356
aS'leather'
p1357
aa(lp1358
aI0
aI1
aI1
aI0
aS'california'
p1359
asI155
(lp1360
(lp1361
S'cooler'
p1362
aS'temperatures'
p1363
aS'and'
p1364
aS'unsettled'
p1365
aS'weather'
p1366
aS'will'
p1367
aS'move'
p1368
aS'back'
p1369
aS'into'
p1370
aS'eastern'
p1371
aS'utah'
p1372
aS'and'
p1373
aS'western'
p1374
aS'colorado'
p1375
aS'by'
p1376
aS'mid'
p1377
aS'week'
p1378
aS'lar'
p1379
aa(lp1380
aI0
aI0
aI0
aI1
aS'utah'
p1381
asI156
(lp1382
(lp1383
S'ive'
p1384
aS'checked'
p1385
aS'weather'
p1386
aS'forecast'
p1387
aS'still'
p1388
aS'says'
p1389
aS'blazing'
p1390
aS'sunshine'
p1391
aS'come'
p1392
aS'take'
p1393
aS'look'
p1394
aS'window'
p1395
aS'mr'
p1396
aS'forecaster'
p1397
aS'it'
p1398
aS'aint'
p1399
aa(lp1400
aI0
aI0
aI0
aI0
aS'pennsylvania'
p1401
asI157
(lp1402
(lp1403
S'weather'
p1404
aS'pm'
p1405
aS'feels'
p1406
aS'humidity'
p1407
aS'mph'
p1408
aS'north'
p1409
aS'wind'
p1410
aa(lp1411
S'weather'
p1412
aaI1
aI0
aI0
aI0
aS'ohio'
p1413
asI158
(lp1414
(lp1415
S'nws'
p1416
aS'top'
p1417
aS'hazardous'
p1418
aS'weather'
p1419
aS'outlook'
p1420
aS'hwo'
p1421
aS'ksstorms'
p1422
aS'kswx'
p1423
aa(lp1424
S'top'
p1425
aS'ksstorms'
p1426
aS'kswx'
p1427
aaI1
aI0
aI0
aI1
aS'kansas'
p1428
asI159
(lp1429
(lp1430
S'weather'
p1431
aS'beautiful'
p1432
aS'right'
p1433
aS'hope'
p1434
aS'great'
p1435
aS'time'
p1436
aa(lp1437
aI0
aI1
aI0
aI0
aS'new york'
p1438
asI160
(lp1439
(lp1440
S'weather'
p1441
aS'feels'
p1442
aS'humidity'
p1443
aS'mph'
p1444
aS'north'
p1445
aS'wind'
p1446
aa(lp1447
S'weather'
p1448
aaI1
aI0
aI0
aI0
aS'oregon'
p1449
asI164
(lp1450
(lp1451
S'friend'
p1452
aS'hs'
p1453
aS'named'
p1454
aS'gypsystorm'
p1455
aS'we'
p1456
aS'called'
p1457
aS'stormy'
p1458
aS'she'
p1459
aS'turned'
p1460
aS'alright'
p1461
aa(lp1462
aI0
aI1
aI0
aI0
aS'pennsylvania'
p1463
asI167
(lp1464
(lp1465
S'farmersburg'
p1466
aS'fairbanks'
p1467
aS'pimento'
p1468
aS'need'
p1469
aS'tornado'
p1470
aS'safeplaces'
p1471
aS'storm'
p1472
aS'inwx'
p1473
aa(lp1474
S'inwx'
p1475
aaI1
aI1
aI1
aI0
aS'indiana'
p1476
asI168
(lp1477
(lp1478
S'good'
p1479
aS'weather'
p1480
aS'vibes'
p1481
aS'paid'
p1482
aS'we'
p1483
aS'able'
p1484
aS'get'
p1485
aS'great'
p1486
aS'shots'
p1487
aS'little'
p1488
aS'cutie'
p1489
aS'baptism'
p1490
aS'dress'
p1491
aa(lp1492
aI0
aI0
aI0
aI1
aS'wyoming'
p1493
asI169
(lp1494
(lp1495
S'make'
p1496
aS'rain'
p1497
aS'make'
p1498
aS'rain'
p1499
aS'make'
p1500
aS'storm'
p1501
aa(lp1502
aI0
aI1
aI0
aI0
aS'maryland'
p1503
asI170
(lp1504
(lp1505
S'this'
p1506
aS'weather'
p1507
aS'means'
p1508
aS'one'
p1509
aS'thing'
p1510
aS'gt'
p1511
aS'time'
p1512
aS'pop'
p1513
aS'jm'
p1514
aS'cd'
p1515
aa(lp1516
aI0
aI0
aI0
aI0
aS'florida'
p1517
asI171
(lp1518
(lp1519
S'last'
p1520
aS'weeks'
p1521
aS'weather'
p1522
aa(lp1523
aI0
aI1
aI0
aI0
aS'arkansas'
p1524
asI173
(lp1525
(lp1526
S'hey'
p1527
aS'haarp'
p1528
aS'leave'
p1529
aS'weather'
p1530
aS'alone'
p1531
aa(lp1532
aI0
aI0
aI0
aI0
aS'missouri'
p1533
asI174
(lp1534
(lp1535
S'think'
p1536
aS'shud'
p1537
aS'give'
p1538
aS'sum'
p1539
aS'dawg'
p1540
aS'sunshine'
p1541
aS'like'
p1542
aS'ol'
p1543
aS'days'
p1544
aa(lp1545
aI0
aI0
aI0
aI0
aS'michigan'
p1546
asI175
(lp1547
(lp1548
S'holy'
p1549
aS'twitterwhats'
p1550
aS'happening'
p1551
aS'weather'
p1552
aS'west'
p1553
aS'enough'
p1554
aS'already'
p1555
aS'hope'
p1556
aS'help'
p1557
aS'gets'
p1558
aS'need'
p1559
aS'quickly'
p1560
aa(lp1561
aI0
aI0
aI0
aI0
aS'florida'
p1562
asI176
(lp1563
(lp1564
S'thunder'
p1565
aS'severe'
p1566
aS'weather'
p1567
aS'warning'
p1568
aS'wouldnt'
p1569
aS'triathlon'
p1570
aS'without'
p1571
aS'florida'
p1572
aa(lp1573
S'florida'
p1574
aS''
aaI1
aI0
aI0
aI0
aS'florida'
p1575
asI177
(lp1576
(lp1577
S'sun'
p1578
aS'moon'
p1579
aS'ice'
p1580
aS'snow'
p1581
aa(lp1582
aI0
aI0
aI0
aI1
aS'wisconsin'
p1583
asI179
(lp1584
(lp1585
S'this'
p1586
aS'bitch'
p1587
aS'ass'
p1588
aS'weather'
p1589
aS'matches'
p1590
aS'bitch'
p1591
aS'ass'
p1592
aS'niggaz'
p1593
aa(lp1594
aI0
aI1
aI1
aI0
aS'michigan'
p1595
asI180
(lp1596
(lp1597
S'wishing'
p1598
aS'could'
p1599
aS'stay'
p1600
aS'home'
p1601
aS'enjoy'
p1602
aS'weather'
p1603
aS'at'
p1604
aS'least'
p1605
aS'next'
p1606
aS'days'
p1607
aa(lp1608
aI0
aI0
aI0
aI0
aS'kansas'
p1609
asI183
(lp1610
(lp1611
S'this'
p1612
aS'weather'
p1613
aS'makes'
p1614
aS'sad'
p1615
aS'cant'
p1616
aS'pool'
p1617
aS'time'
p1618
aS'summer'
p1619
aa(lp1620
aI0
aI0
aI0
aI0
aS'kansas'
p1621
asI184
(lp1622
(lp1623
S'wi'
p1624
aS'gop'
p1625
aS'wi'
p1626
aS'weather'
p1627
aS'whoever'
p1628
aS'fuck'
p1629
aS'called'
p1630
aS'three'
p1631
aS'times'
p1632
aS'super'
p1633
aS'early'
p1634
aS'morning'
p1635
aS'fuck'
p1636
aS'you'
p1637
aa(lp1638
aI0
aI0
aI0
aI0
aS'wisconsin'
p1639
asI185
(lp1640
(lp1641
S'forecast'
p1642
aS'calls'
p1643
aS'wed'
p1644
aS'mostly'
p1645
aS'sunny'
p1646
aS'given'
p1647
aS'btv'
p1648
aS'nws'
p1649
aS'modelsodds'
p1650
aS'happening'
p1651
aS'thinking'
p1652
aS'right'
p1653
aS'stowe'
p1654
aS'vt'
p1655
aa(lp1656
S'btv'
p1657
aS'nws'
p1658
aS'stowe'
p1659
aS'vt'
p1660
aaI1
aI0
aI0
aI0
aS'vermont'
p1661
asI186
(lp1662
(lp1663
S'think'
p1664
aS'weather'
p1665
aS'looking'
p1666
aS'sgk'
p1667
aa(lp1668
aI0
aI1
aI0
aI0
aS'west virginia'
p1669
asI187
(lp1670
(lp1671
S'the'
p1672
aS'al'
p1673
aS'storm'
p1674
aS'damage'
p1675
aS'surreal'
p1676
aS'sad'
p1677
aS'pic'
p1678
aS'operating'
p1679
aS'dakt'
p1680
aS'digital'
p1681
aS'billboard'
p1682
aS'surrounded'
p1683
aS'debris'
p1684
aa(lp1685
aI0
aI0
aI0
aI1
aS'south dakota'
p1686
asI188
(lp1687
(lp1688
S'on'
p1689
aS'rainy'
p1690
aS'day'
p1691
aS'like'
p1692
aS'today'
p1693
aS'put'
p1694
aS'gay'
p1695
aS'sunshine'
p1696
aS'day'
p1697
aS'gaydy'
p1698
aS'bunch'
p1699
aa(lp1700
aI0
aI1
aI1
aI1
aS'south dakota'
p1701
asI189
(lp1702
(lp1703
S'getting'
p1704
aS'chilly'
p1705
aS'room'
p1706
aa(lp1707
aI0
aI0
aI0
aI0
aS'mississippi'
p1708
asI190
(lp1709
(lp1710
S'this'
p1711
aS'weather'
p1712
aS'makes'
p1713
aS'super'
p1714
aS'happy'
p1715
aS'wish'
p1716
aS'would'
p1717
aS'rain'
p1718
aS'morels'
p1719
aa(lp1720
S'morels'
p1721
aaI1
aI0
aI0
aI0
aS'wisconsin'
p1722
asI191
(lp1723
(lp1724
S'supposed'
p1725
aS'sunny'
p1726
aS'week'
p1727
aa(lp1728
aI0
aI0
aI0
aI0
aS'michigan'
p1729
asI194
(lp1730
(lp1731
S'this'
p1732
aS'dallas'
p1733
aS'weather'
p1734
aS'make'
p1735
aS'think'
p1736
aS'world'
p1737
aS'gon'
p1738
aS'end'
p1739
aa(lp1740
aI0
aI0
aI0
aI0
aS'texas'
p1741
asI195
(lp1742
(lp1743
S'was'
p1744
aS'awsome'
p1745
aS'day'
p1746
aS'except'
p1747
aS'humidity'
p1748
aS'thinking'
p1749
aS'getting'
p1750
aS'bike'
p1751
aa(lp1752
aI0
aI0
aI0
aI0
aS'indiana'
p1753
asI197
(lp1754
(lp1755
S'we'
p1756
aS'kind'
p1757
aS'like'
p1758
aS'inclement'
p1759
aS'weather'
p1760
aS'played'
p1761
aS'well'
p1762
aS'snow'
p1763
aS'minnesota'
p1764
aS'won'
p1765
aS'tonight'
p1766
aS'got'
p1767
aS'poured'
p1768
aS'upon'
p1769
aS'one'
p1770
aS'complains'
p1771
aS'love'
p1772
aa(lp1773
aI0
aI0
aI0
aI0
aS'florida'
p1774
asI198
(lp1775
(lp1776
S'really'
p1777
aS'want'
p1778
aS'meet'
p1779
aS'nudist'
p1780
aS'it'
p1781
aS'must'
p1782
aS'quite'
p1783
aS'endurance'
p1784
aS'lifestyle'
p1785
aS'youre'
p1786
aS'living'
p1787
aS'scotland'
p1788
aS'given'
p1789
aS'weather'
p1790
aa(lp1791
aI0
aI0
aI0
aI0
aS'utah'
p1792
asI199
(lp1793
(lp1794
S'hate'
p1795
aS'shoot'
p1796
aS'cancelled'
p1797
aS'rescheduled'
p1798
aS'due'
p1799
aS'weather'
p1800
aS'hour'
p1801
aS'later'
p1802
aS'sun'
p1803
aS'heres'
p1804
aS'working'
p1805
aS'sunday'
p1806
aS'ugh'
p1807
aS'fb'
p1808
aa(lp1809
S'fb'
p1810
aS'in'
p1811
aaI1
aI0
aI0
aI0
aS'texas'
p1812
asI201
(lp1813
(lp1814
S'photo'
p1815
aS'sink'
p1816
aS'hole'
p1817
aS'storm'
p1818
aS'mn'
p1819
aa(lp1820
S'photo'
p1821
aS'sink'
p1822
aS'hole'
p1823
aS'storm'
p1824
aS'mn'
p1825
aaI1
aI0
aI0
aI1
aS'minnesota'
p1826
asI202
(lp1827
(lp1828
S'chilly'
p1829
aS'night'
p1830
aS'louisville'
p1831
aS'degrees'
p1832
aS'think'
p1833
aS'need'
p1834
aS'little'
p1835
aS'heat'
p1836
aa(lp1837
aI0
aI0
aI0
aI0
aS'kentucky'
p1838
asI203
(lp1839
(lp1840
S'come'
p1841
aS'tonight'
p1842
aS'rainy'
p1843
aS'dreary'
p1844
aS'day'
p1845
aS'celebrate'
p1846
aS'us'
p1847
aS'tonight'
p1848
aS'menu'
p1849
aa(lp1850
aI0
aI0
aI0
aI1
aS'maine'
p1851
asI205
(lp1852
(lp1853
S'lied'
p1854
aS'ended'
p1855
aS'going'
p1856
aS'outside'
p1857
aS'lol'
p1858
aS'hella'
p1859
aS'hot'
p1860
aa(lp1861
aI0
aI0
aI0
aI1
aS'north carolina'
p1862
asI206
(lp1863
(lp1864
S'loooooool'
p1865
aS'bed'
p1866
aS'warm'
p1867
aS'cant'
p1868
aS'get'
p1869
aa(lp1870
aI0
aI1
aI0
aI0
aS'oregon'
p1871
asI207
(lp1872
(lp1873
S'my'
p1874
aS'boxer'
p1875
aS'liking'
p1876
aS'weather'
p1877
aa(lp1878
aI0
aI0
aI0
aI0
aS'tennessee'
p1879
asI208
(lp1880
(lp1881
S'possible'
p1882
aS'thunderstorms'
p1883
aS'this'
p1884
aS'afternoon'
p1885
aa(lp1886
aI0
aI0
aI0
aI1
aS'california'
p1887
asI209
(lp1888
(lp1889
S'why'
p1890
aS'rainy'
p1891
aS'days'
p1892
aS'make'
p1893
aS'drowsy'
p1894
aa(lp1895
aI0
aI0
aI0
aI0
aS'pennsylvania'
p1896
asI210
(lp1897
(lp1898
S'good'
p1899
aS'luck'
p1900
aS'hope'
p1901
aS'weather'
p1902
aS'gets'
p1903
aS'better'
p1904
aS'im'
p1905
aS'sick'
p1906
aS'cold'
p1907
aS'wet'
p1908
aa(lp1909
aI0
aI1
aI0
aI0
aS'new jersey'
p1910
asI211
(lp1911
(lp1912
S'hoping'
p1913
aS'beautiful'
p1914
aS'colorado'
p1915
aS'weather'
p1916
aS'tomorrow'
p1917
aS'hike'
p1918
aa(lp1919
S'colorado'
p1920
aaI1
aI0
aI0
aI0
aS'colorado'
p1921
asI212
(lp1922
(lp1923
S'also'
p1924
aS'lovely'
p1925
aS'day'
p1926
aS'rapture'
p1927
aS'degrees'
p1928
aS'what'
p1929
aS'nice'
p1930
aS'way'
p1931
aS'go'
p1932
aa(lp1933
S'rapture'
p1934
aaI1
aI0
aI0
aI0
aS'maryland'
p1935
asI214
(lp1936
(lp1937
S'iim'
p1938
aS'scared'
p1939
aS'thunderstorms'
p1940
aa(lp1941
aI0
aI0
aI0
aI0
aS'michigan'
p1942
asI216
(lp1943
(lp1944
S'storms'
p1945
aS'possible'
p1946
aS'evening'
p1947
aS'overnight'
p1948
aS'better'
p1949
aS'chance'
p1950
aS'saturday'
p1951
aa(lp1952
aI0
aI0
aI0
aI1
aS'south carolina'
p1953
asI218
(lp1954
(lp1955
S'welcome'
p1956
aS'to'
p1957
aS'indiana'
p1958
aS'weather'
p1959
aS'real'
p1960
aS'or'
p1961
aS'fake'
p1962
aS'indiana'
p1963
aS'welcomes'
p1964
aS'you'
p1965
aS'best'
p1966
aS'believe'
p1967
aS'we'
p1968
aS'set'
p1969
aS'you'
p1970
aS'straightfoe'
p1971
aa(lp1972
aI0
aI0
aI0
aI0
aS'indiana'
p1973
asI220
(lp1974
(lp1975
S'hairy'
p1976
aS'weather'
p1977
aS'alert'
p1978
aS'severe'
p1979
aS'thunderstorm'
p1980
aS'warning'
p1981
aS'effect'
p1982
aS'wise'
p1983
aS'county'
p1984
aS'til'
p1985
aa(lp1986
aI0
aI0
aI0
aI0
aS'texas'
p1987
asI221
(lp1988
(lp1989
S'love'
p1990
aS'summer'
p1991
aS'storms'
p1992
aS'could'
p1993
aS'successful'
p1994
aS'weather'
p1995
aS'girl'
p1996
aS'fibro'
p1997
aS'pain'
p1998
aS'giving'
p1999
aS'heas'
p2000
aS'canpredict'
p2001
aa(lp2002
S'fibro'
p2003
aS'pain'
p2004
aS'canpredict'
p2005
aaI1
aI1
aI1
aI0
aS'tennessee'
p2006
asI223
(lp2007
(lp2008
S'wat'
p2009
aS'tornadoes'
p2010
aS'often'
p2011
aS'set'
p2012
aS'alarm'
p2013
aS'thunderstorm'
p2014
aS'sound'
p2015
aS'like'
p2016
aS'bomb'
p2017
aS'sirens'
p2018
aS'basically'
p2019
aa(lp2020
aI0
aI1
aI0
aI0
aS'delaware'
p2021
asI226
(lp2022
(lp2023
S'norfolk'
p2024
aS'morning'
p2025
aS'bright'
p2026
aS'sunny'
p2027
aS'still'
p2028
aS'rain'
p2029
aa(lp2030
aI0
aI0
aI0
aI0
aS'virginia'
p2031
asI227
(lp2032
(lp2033
S'degrees'
p2034
aa(lp2035
aI0
aI0
aI0
aI1
aS'louisiana'
p2036
asI229
(lp2037
(lp2038
S'thanks'
p2039
aS'otgeveryone'
p2040
aS'came'
p2041
aS'yesterday'
p2042
aS'best'
p2043
aS'weather'
p2044
aS'made'
p2045
aS'happen'
p2046
aS'look'
p2047
aS'forward'
p2048
aS'next'
p2049
aS'time'
p2050
aa(lp2051
aI0
aI0
aI0
aI0
aS'california'
p2052
asI230
(lp2053
(lp2054
S'its'
p2055
aS'freezing'
p2056
aS'bar'
p2057
aS'ac'
p2058
aS'or'
p2059
aS'north'
p2060
aa(lp2061
aI0
aI0
aI0
aI0
aS'florida'
p2062
asI231
(lp2063
(lp2064
S'whoopsiesomeone'
p2065
aS'totally'
p2066
aS'flipped'
p2067
aS'the'
p2068
aS'weather'
p2069
aS'channel'
p2070
aS'joplin'
p2071
aS'mo'
p2072
aa(lp2073
aI0
aI0
aI0
aI0
aS'tennessee'
p2074
asI233
(lp2075
(lp2076
S'degrees'
p2077
aS'well'
p2078
aS'done'
p2079
aS'sioux'
p2080
aS'fallssd'
p2081
aS'well'
p2082
aS'done'
p2083
aa(lp2084
aI0
aI0
aI0
aI0
aS'south dakota'
p2085
asI234
(lp2086
(lp2087
S'its'
p2088
aS'hot'
p2089
aS'hell'
p2090
aS'hot'
p2091
aS'weather'
p2092
aS'aint'
p2093
aS'thing'
p2094
aS'im'
p2095
aS'gettin'
p2096
aS'aggravated'
p2097
aS'juss'
p2098
aS'wanna'
p2099
aS'fight'
p2100
aa(lp2101
aI0
aI0
aI0
aI0
aS'north carolina'
p2102
asI237
(lp2103
(lp2104
S'yess'
p2105
aS'sleeping'
p2106
aS'like'
p2107
aS'baby'
p2108
aS'tonight'
p2109
aS'thank'
p2110
aS'rain'
p2111
aa(lp2112
S'rain'
p2113
aaI1
aI0
aI0
aI0
aS'florida'
p2114
asI238
(lp2115
(lp2116
S'starting'
p2117
aS'feel'
p2118
aS'like'
p2119
aS'summer'
p2120
aS'lakeshore'
p2121
aS'campuswhats'
p2122
aS'favorite'
p2123
aS'way'
p2124
aS'get'
p2125
aS'exercise'
p2126
aS'weather'
p2127
aS'nice'
p2128
aa(lp2129
S'summer'
p2130
aS'lakeshore'
p2131
aaI1
aI0
aI0
aI0
aS'illinois'
p2132
asI240
(lp2133
(lp2134
S'take'
p2135
aS'look'
p2136
aS'beautiful'
p2137
aS'view'
p2138
aS'morning'
p2139
aS'summit'
p2140
aS'mauna'
p2141
aS'kea'
p2142
aS'travel'
p2143
aS'hawaii'
p2144
aS'winte'
p2145
aa(lp2146
S'travel'
p2147
aS'hawaii'
p2148
aS'winte'
p2149
aaI1
aI1
aI1
aI1
aS'delaware'
p2150
asI245
(lp2151
(lp2152
S'thunderstorm'
p2153
aa(lp2154
aI0
aI0
aI0
aI0
aS'michigan'
p2155
asI246
(lp2156
(lp2157
S'if'
p2158
aS'yu'
p2159
aS'dont'
p2160
aS'pray'
p2161
aS'on'
p2162
aS'regular'
p2163
aS'dont'
p2164
aS'pray'
p2165
aS'about'
p2166
aS'this'
p2167
aS'storm'
p2168
aS'pleaseyu'
p2169
aS'mite'
p2170
aS'piss'
p2171
aS'god'
p2172
aS'off'
p2173
aa(lp2174
aI0
aI0
aI0
aI0
aS'north carolina'
p2175
asI247
(lp2176
(lp2177
S'so'
p2178
aS'dat'
p2179
aS'boy'
p2180
aS'coworker'
p2181
aS'told'
p2182
aS'new'
p2183
aS'cd'
p2184
aS'hot'
p2185
aS'gotta'
p2186
aS'check'
p2187
aa(lp2188
aI0
aI1
aI0
aI0
aS'louisiana'
p2189
asI248
(lp2190
(lp2191
S'rainy'
p2192
aS'day'
p2193
aS'deal'
p2194
aa(lp2195
aI0
aI0
aI0
aI0
aS'louisiana'
p2196
asI251
(lp2197
(lp2198
S'the'
p2199
aS'beach'
p2200
aS'boys'
p2201
aS'john'
p2202
aS'stamos'
p2203
aS'visited'
p2204
aS'north'
p2205
aS'alabama'
p2206
aS'storm'
p2207
aS'damage'
p2208
aS'huge'
p2209
aa(lp2210
aI0
aI1
aI1
aI0
aS'alabama'
p2211
asI252
(lp2212
(lp2213
S'just'
p2214
aS'tad'
p2215
aS'bit'
p2216
aS'chilly'
p2217
aS'side'
p2218
aS'today'
p2219
aS'ima'
p2220
aS'need'
p2221
aS'get'
p2222
aS'back'
p2223
aa(lp2224
aI0
aI0
aI0
aI0
aS'georgia'
p2225
asI253
(lp2226
(lp2227
S'besides'
p2228
aS'nothing'
p2229
aS'like'
p2230
aS'good'
p2231
aS'zombie'
p2232
aS'movie'
p2233
aS'go'
p2234
aS'thunderstorm'
p2235
aS'outside'
p2236
aS'day'
p2237
aS'supposed'
p2238
aS'go'
p2239
aS'hell'
p2240
aa(lp2241
aI0
aI1
aI0
aI0
aS'tennessee'
p2242
asI254
(lp2243
(lp2244
S'bl'
p2245
aS'fair'
p2246
aS'windy'
p2247
aS'bozemangallatin'
p2248
aS'mt'
p2249
aS'winds'
p2250
aS'southwest'
p2251
aS'gusting'
p2252
aS'mph'
p2253
aS'gustin'
p2254
aa(lp2255
aI0
aI0
aI0
aI1
aS'montana'
p2256
asI256
(lp2257
(lp2258
S'soup'
p2259
aS'chai'
p2260
aS'wild'
p2261
aS'roast'
p2262
aS'rainy'
p2263
aS'sunday'
p2264
aS'justwhatthedoctorordered'
p2265
aa(lp2266
S'justwhatthedoctorordered'
p2267
aaI1
aI0
aI0
aI0
aS'minnesota'
p2268
asI257
(lp2269
(lp2270
S'paula'
p2271
aS'deen'
p2272
aS'buffet'
p2273
aS'horseshoe'
p2274
aS'back'
p2275
aS'open'
p2276
aS'thanks'
p2277
aS'staff'
p2278
aS'hard'
p2279
aS'work'
p2280
aS'lets'
p2281
aS'enjoy'
p2282
aS'sunshine'
p2283
aa(lp2284
aI0
aI1
aI1
aI0
aS'alaska'
p2285
asI258
(lp2286
(lp2287
S'mark'
p2288
aS'calendar'
p2289
aS'zumba'
p2290
aS'cause'
p2291
aS'stl'
p2292
aS'zumba'
p2293
aS'fundraiser'
p2294
aS'storm'
p2295
aS'victims'
p2296
aS'can'
p2297
aS'dance'
p2298
aS'st'
p2299
aS'ann'
p2300
aS'june'
p2301
aS'th'
p2302
aS'pm'
p2303
aa(lp2304
S'cause'
p2305
aS'stl'
p2306
aS'zumba'
p2307
aaI1
aI1
aI0
aI0
aS'missouri'
p2308
asI259
(lp2309
(lp2310
S'stay'
p2311
aS'safe'
p2312
aS'haskell'
p2313
aS'county'
p2314
aS'swk'
p2315
aS'was'
p2316
aS'kciairport'
p2317
aS'huge'
p2318
aS'storm'
p2319
aS'watched'
p2320
aS'scary'
p2321
aS'clouds'
p2322
aS'roll'
p2323
aa(lp2324
S'swk'
p2325
aS'kciairport'
p2326
aaI1
aI0
aI0
aI0
aS'new york'
p2327
asI261
(lp2328
(lp2329
S'hopefully'
p2330
aS'storm'
p2331
aS'passes'
p2332
aa(lp2333
aI0
aI0
aI0
aI0
aS'kentucky'
p2334
asI262
(lp2335
(lp2336
S'severe'
p2337
aS'thunderstorm'
p2338
aS'warning'
p2339
aS'pm'
p2340
aS'area'
p2341
aS'the'
p2342
aS'national'
p2343
aS'weather'
p2344
aS'service'
p2345
aS'issued'
p2346
aS'severe'
p2347
aS'thunderstorm'
p2348
aa(lp2349
aI0
aI0
aI0
aI1
aS'ohio'
p2350
asI264
(lp2351
(lp2352
S'ahhh'
p2353
aS'maybe'
p2354
aS'depends'
p2355
aS'weather'
p2356
aS'lmao'
p2357
aa(lp2358
aI0
aI1
aI0
aI0
aS'new york'
p2359
asI265
(lp2360
(lp2361
S'severe'
p2362
aS'thunderstorm'
p2363
aS'watch'
p2364
aS'is'
p2365
aS'in'
p2366
aS'effect'
p2367
aS'until'
p2368
aS'pm'
p2369
aS'cdt'
p2370
aS'for'
p2371
aS'the'
p2372
aS'following'
p2373
aS'locations'
p2374
aa(lp2375
aI0
aI0
aI0
aI0
aS'mississippi'
p2376
asI267
(lp2377
(lp2378
S'maybe'
p2379
aS'storm'
p2380
aS'rapture'
p2381
aS'coming'
p2382
aS'fruition'
p2383
aa(lp2384
aI0
aI1
aI0
aI0
aS'south carolina'
p2385
asI268
(lp2386
(lp2387
S'least'
p2388
aS'attempt'
p2389
aS'get'
p2390
aS'outside'
p2391
aS'beautiful'
p2392
aS'weather'
p2393
aS'today'
p2394
aS'productive'
p2395
aa(lp2396
aI0
aI0
aI0
aI0
aS'wisconsin'
p2397
asI269
(lp2398
(lp2399
S'on'
p2400
aS'tap'
p2401
aS'weekend'
p2402
aS'sunny'
p2403
aS'skies'
p2404
aS'degree'
p2405
aS'temps'
p2406
aS'lots'
p2407
aS'wilmington'
p2408
aS'ncs'
p2409
aS'cape'
p2410
aS'fear'
p2411
aS'coast'
p2412
aS'ilm'
p2413
aa(lp2414
S'ilm'
p2415
aaI1
aI0
aI0
aI1
aS'delaware'
p2416
asI270
(lp2417
(lp2418
S'sunny'
p2419
aS'mid'
p2420
aS'afternoon'
p2421
aS'gringo'
p2422
aa(lp2423
S'gringo'
p2424
aaI1
aI0
aI0
aI1
aS'montana'
p2425
asI271
(lp2426
(lp2427
S'beautiful'
p2428
aS'weather'
p2429
aS'outside'
p2430
aS'today'
p2431
aa(lp2432
aI0
aI0
aI0
aI0
aS'wisconsin'
p2433
asI272
(lp2434
(lp2435
S'its'
p2436
aS'middle'
p2437
aS'may'
p2438
aS'im'
p2439
aS'still'
p2440
aS'using'
p2441
aS'seat'
p2442
aS'warmer'
p2443
aS'car'
p2444
aS'this'
p2445
aS'weather'
p2446
aS'blows'
p2447
aa(lp2448
aI0
aI0
aI0
aI0
aS'vermont'
p2449
asI273
(lp2450
(lp2451
S'went'
p2452
aS'game'
p2453
aS'sat'
p2454
aS'degrees'
p2455
aS'rain'
p2456
aS'jays'
p2457
aS'scored'
p2458
aS'th'
p2459
aS'take'
p2460
aS'most'
p2461
aS'depressing'
p2462
aS'game'
p2463
aS'ive'
p2464
aS'yrs'
p2465
aa(lp2466
aI0
aI1
aI0
aI0
aS'minnesota'
p2467
asI276
(lp2468
(lp2469
S'why'
p2470
aS'couldnt'
p2471
aS'weather'
p2472
aS'like'
p2473
aS'softball'
p2474
aa(lp2475
aI0
aI0
aI0
aI0
aS'ohio'
p2476
asI277
(lp2477
(lp2478
S'turned'
p2479
aS'tv'
p2480
aS'hotel'
p2481
aS'immediately'
p2482
aS'see'
p2483
aS'meteorologists'
p2484
aS'watching'
p2485
aS'wx'
p2486
aS'around'
p2487
aS'kansas'
p2488
aS'glad'
p2489
aS'nice'
p2490
aS'weather'
p2491
aS'landed'
p2492
aa(lp2493
S'wx'
p2494
aaI1
aI0
aI0
aI0
aS'georgia'
p2495
asI280
(lp2496
(lp2497
S'happy'
p2498
aS'ny'
p2499
aS'result'
p2500
aS'thoughts'
p2501
aS'fearing'
p2502
aS'lives'
p2503
aS'properties'
p2504
aS'scary'
p2505
aS'weather'
p2506
aS'night'
p2507
aa(lp2508
aI0
aI0
aI0
aI0
aS'west virginia'
p2509
asI281
(lp2510
(lp2511
S'grt'
p2512
aS'plan'
p2513
aS'subpar'
p2514
aS'night'
p2515
aS'saga'
p2516
aS'continuesanother'
p2517
aS'chilly'
p2518
aS'eve'
p2519
aS'dash'
p2520
aS'thunderstorms'
p2521
aS'candles'
p2522
aS'writing'
p2523
aS'away'
p2524
aa(lp2525
aI0
aI1
aI1
aI0
aS'illinois'
p2526
asI282
(lp2527
(lp2528
S'wish'
p2529
aS'heatwave'
p2530
aa(lp2531
aI0
aI1
aI0
aI0
aS'arkansas'
p2532
asI283
(lp2533
(lp2534
S'north'
p2535
aS'minneapolis'
p2536
aS'storm'
p2537
aS'damage'
p2538
aS'photos'
p2539
aS'mnstorms'
p2540
aa(lp2541
S'mnstorms'
p2542
aaI1
aI0
aI0
aI1
aS'minnesota'
p2543
asI284
(lp2544
(lp2545
S'weather'
p2546
aS'pm'
p2547
aS'feels'
p2548
aS'humidity'
p2549
aS'mph'
p2550
aS'southeast'
p2551
aS'wind'
p2552
aa(lp2553
S'weather'
p2554
aaI1
aI0
aI0
aI0
aS'north carolina'
p2555
asI285
(lp2556
(lp2557
S'with'
p2558
aS'beautiful'
p2559
aS'weather'
p2560
aS'wouldnt'
p2561
aS'love'
p2562
aS'happy'
p2563
aS'day'
p2564
aS'nyc'
p2565
aS'spa'
p2566
aS'broadway'
p2567
aS'dinner'
p2568
aa(lp2569
aI0
aI1
aI1
aI1
aS'new jersey'
p2570
asI287
(lp2571
(lp2572
S'really'
p2573
aS'freaking'
p2574
aS'hot'
p2575
aS'outside'
p2576
aa(lp2577
aI0
aI0
aI0
aI0
aS'pennsylvania'
p2578
asI288
(lp2579
(lp2580
S'cheering'
p2581
aS'gomets'
p2582
aS'holy'
p2583
aS'sunshine'
p2584
aa(lp2585
S'gomets'
p2586
aaI1
aI1
aI0
aI0
aS'new york'
p2587
asI289
(lp2588
(lp2589
S'running'
p2590
aS'minutes'
p2591
aS'sleep'
p2592
aS'iced'
p2593
aS'coffee'
p2594
aS'oh'
p2595
aS'im'
p2596
aS'fucking'
p2597
aS'freezing'
p2598
aa(lp2599
aI0
aI0
aI0
aI0
aS'california'
p2600
asI290
(lp2601
(lp2602
S'somewhere'
p2603
aS'clam'
p2604
aS'sunny'
p2605
aS'degrees'
p2606
aa(lp2607
aI0
aI1
aI0
aI0
aS'michigan'
p2608
asI291
(lp2609
(lp2610
S'severe'
p2611
aS'tstorm'
p2612
aS'watch'
p2613
aS'pm'
p2614
aS'upstate'
p2615
aS'stay'
p2616
aS'close'
p2617
aS'weather'
p2618
aS'information'
p2619
aS'tonight'
p2620
aa(lp2621
aI0
aI1
aI1
aI0
aS'south carolina'
p2622
asI293
(lp2623
(lp2624
S'rt'
p2625
aS'lol'
p2626
aS'rt'
p2627
aS'seen'
p2628
aS'tl'
p2629
aS'look'
p2630
aS'degrees'
p2631
aS'saturday'
p2632
aS'tho'
p2633
aa(lp2634
aI0
aI1
aI1
aI1
aS'new jersey'
p2635
asI294
(lp2636
(lp2637
S'happy'
p2638
aS'mothers'
p2639
aS'day'
p2640
aS'beautiful'
p2641
aS'day'
p2642
aS'ahead'
p2643
aS'partly'
p2644
aS'sunny'
p2645
aS'mild'
p2646
aS'probably'
p2647
aS'dry'
p2648
aS'high'
p2649
aS'near'
p2650
aS'showers'
p2651
aS'tonight'
p2652
aa(lp2653
aI0
aI0
aI0
aI1
aS'minnesota'
p2654
asI295
(lp2655
(lp2656
S'school'
p2657
aS'worst'
p2658
aS'rainy'
p2659
aS'days'
p2660
aa(lp2661
aI0
aI1
aI1
aI0
aS'texas'
p2662
asI297
(lp2663
(lp2664
S'yea'
p2665
aS'freakin'
p2666
aS'windy'
p2667
aS'ha'
p2668
aS'ha'
p2669
aa(lp2670
aI0
aI1
aI0
aI0
aS'new mexico'
p2671
asI298
(lp2672
(lp2673
S'rainy'
p2674
aS'day'
p2675
aS'otherwise'
p2676
aS'hopes'
p2677
aS'dreams'
p2678
aS'might'
p2679
aS'crushed'
p2680
aa(lp2681
aI0
aI0
aI0
aI1
aS'texas'
p2682
asI299
(lp2683
(lp2684
S'its'
p2685
aS'ugly'
p2686
aS'hot'
p2687
aS'outside'
p2688
aa(lp2689
aI0
aI0
aI0
aI0
aS'michigan'
p2690
asI301
(lp2691
(lp2692
S'loving'
p2693
aS'th'
p2694
aS'nice'
p2695
aS'weather'
p2696
aa(lp2697
aI0
aI0
aI0
aI0
aS'georgia'
p2698
asI302
(lp2699
(lp2700
S'well'
p2701
aS'morning'
p2702
aS'looks'
p2703
aS'like'
p2704
aS'great'
p2705
aS'day'
p2706
aS'todaysunshine'
p2707
aS'work'
p2708
aa(lp2709
aI0
aI0
aI0
aI0
aS'ohio'
p2710
asI303
(lp2711
(lp2712
S'more'
p2713
aS'strong'
p2714
aS'weather'
p2715
aS'potential'
p2716
aS'east'
p2717
aS'today'
p2718
aS'near'
p2719
aS'southeast'
p2720
aS'weekend'
p2721
aS'clt'
p2722
aS'next'
p2723
aS'week'
p2724
aS'pa'
p2725
aS'thu'
p2726
aa(lp2727
aI0
aI0
aI0
aI0
aS'north carolina'
p2728
asI304
(lp2729
(lp2730
S'raystigers'
p2731
aS'game'
p2732
aS'postponed'
p2733
aS'the'
p2734
aS'motor'
p2735
aS'city'
p2736
aS'rainy'
p2737
aS'city'
p2738
aS'afternoon'
p2739
aS'heavy'
p2740
aS'rain'
p2741
aS'brought'
p2742
aS'tampa'
p2743
aS'bay'
p2744
aa(lp2745
aI0
aI0
aI0
aI1
aS'florida'
p2746
asI307
(lp2747
(lp2748
S'florissant'
p2749
aS'confused'
p2750
aS'severe'
p2751
aS'weather'
p2752
aS'stlwx'
p2753
aa(lp2754
S'stlwx'
p2755
aaI1
aI0
aI0
aI0
aS'missouri'
p2756
asI308
(lp2757
(lp2758
S'noice'
p2759
aS'intended'
p2760
aS'gym'
p2761
aS'time'
p2762
aS'important'
p2763
aS'cuse'
p2764
aS'great'
p2765
aS'weather'
p2766
aS'finally'
p2767
aS'caught'
p2768
aS'date'
p2769
aS'calendar'
p2770
aa(lp2771
aI0
aI1
aI0
aI0
aS'new york'
p2772
asI309
(lp2773
(lp2774
S'my'
p2775
aS'oldest'
p2776
aS'sister'
p2777
aS'hail'
p2778
aS'cover'
p2779
aS'like'
p2780
aS'snow'
p2781
aS'today'
p2782
aS'worked'
p2783
aS'windows'
p2784
aS'open'
p2785
aS'clear'
p2786
aS'blue'
p2787
aS'skies'
p2788
aS'delicious'
p2789
aS'breezes'
p2790
aS'day'
p2791
aa(lp2792
aI0
aI0
aI0
aI0
aS'florida'
p2793
asI310
(lp2794
(lp2795
S'digging'
p2796
aS'weather'
p2797
aa(lp2798
aI0
aI1
aI1
aI0
aS'massachusetts'
p2799
asI311
(lp2800
(lp2801
S'flew'
p2802
aS'kansas'
p2803
aS'city'
p2804
aS'coming'
p2805
aS'home'
p2806
aS'late'
p2807
aS'saturday'
p2808
aS'night'
p2809
aS'another'
p2810
aS'ridiculous'
p2811
aS'storm'
p2812
aS'cell'
p2813
aS'flew'
p2814
aS'though'
p2815
aa(lp2816
aI0
aI1
aI0
aI0
aS'massachusetts'
p2817
asI313
(lp2818
(lp2819
S'very'
p2820
aS'cool'
p2821
aS'snowboarding'
p2822
aS'video'
p2823
aS'already'
p2824
aS'miss'
p2825
aS'snow'
p2826
aa(lp2827
aI0
aI1
aI1
aI1
aS'california'
p2828
asI314
(lp2829
(lp2830
S'team'
p2831
aS'roadkill'
p2832
aS'ragnarne'
p2833
aS'exchange'
p2834
aS'getting'
p2835
aS'ready'
p2836
aS'run'
p2837
aS'beautiful'
p2838
aS'weather'
p2839
aa(lp2840
S''
aS'ragnarne'
p2841
aaI1
aI0
aI0
aI0
aS'connecticut'
p2842
asI317
(lp2843
(lp2844
S'its'
p2845
aS'sunny'
p2846
aS'makes'
p2847
aS'best'
p2848
aS'northwestern'
p2849
aS'night'
p2850
aS'wrigley'
p2851
aS'weather'
p2852
aS'years'
p2853
aa(lp2854
S'northwestern'
p2855
aaI1
aI0
aI0
aI0
aS'illinois'
p2856
asI318
(lp2857
(lp2858
S'just'
p2859
aS'posted'
p2860
aS'new'
p2861
aS'article'
p2862
aS'tidbits'
p2863
aS'tracking'
p2864
aS'rainy'
p2865
aS'ride'
p2866
aS'cyclemeter'
p2867
aa(lp2868
aI0
aI0
aI0
aI1
aS'washington'
p2869
asI319
(lp2870
(lp2871
S'gvl'
p2872
aS'wx'
p2873
aS'alert'
p2874
aS'severe'
p2875
aS'thunderstorm'
p2876
aS'watch'
p2877
aS'is'
p2878
aS'in'
p2879
aS'effect'
p2880
aS'until'
p2881
aS'pm'
p2882
aS'edt'
p2883
aS'for'
p2884
aS'the'
p2885
aS'following'
p2886
aS'locations'
p2887
aS'sc'
p2888
aS'south'
p2889
aa(lp2890
aI0
aI0
aI0
aI1
aS'south carolina'
p2891
asI321
(lp2892
(lp2893
S'new'
p2894
aS'post'
p2895
aS'heatwave'
p2896
aS'interactive'
p2897
aS'inc'
p2898
aS'announces'
p2899
aS'additions'
p2900
aS'executive'
p2901
aS'team'
p2902
aa(lp2903
aI0
aI0
aI0
aI1
aS'california'
p2904
asI323
(lp2905
(lp2906
S'yess'
p2907
aS'winter'
p2908
aS'also'
p2909
aS'year'
p2910
aS'round'
p2911
aS'dosnt'
p2912
aS'snow'
p2913
aa(lp2914
aI0
aI1
aI0
aI0
aS'washington'
p2915
asI325
(lp2916
(lp2917
S'pm'
p2918
aS'sunny'
p2919
aS'warm'
p2920
aS'desire'
p2921
aS'work'
p2922
aS'anymore'
p2923
aS'today'
p2924
aa(lp2925
aI0
aI0
aI0
aI0
aS'alaska'
p2926
asI326
(lp2927
(lp2928
S'ready'
p2929
aS'get'
p2930
aS'church'
p2931
aS'clothes'
p2932
aS'hot'
p2933
aa(lp2934
aI0
aI0
aI0
aI0
aS'north carolina'
p2935
asI328
(lp2936
(lp2937
S'it'
p2938
aS'started'
p2939
aS'rain'
p2940
aS'sunny'
p2941
aS'must'
p2942
aS'sign'
p2943
aS'might'
p2944
aS'happen'
p2945
aS'rapture'
p2946
aa(lp2947
S'rapture'
p2948
aaI1
aI1
aI1
aI0
aS'oregon'
p2949
asI330
(lp2950
(lp2951
S'nice'
p2952
aS'day'
p2953
aS'broke'
p2954
aS'suppose'
p2955
aS'cool'
p2956
aS'sunny'
p2957
aa(lp2958
aI0
aI0
aI0
aI0
aS'south dakota'
p2959
asI331
(lp2960
(lp2961
S'its'
p2962
aS'good'
p2963
aS'day'
p2964
aS'inauguration'
p2965
aS'crisp'
p2966
aS'sunny'
p2967
aS'congratulations'
p2968
aS'mayor'
p2969
aS'rahm'
p2970
aS'emanuel'
p2971
aa(lp2972
aI0
aI0
aI0
aI0
aS'illinois'
p2973
asI332
(lp2974
(lp2975
S'weather'
p2976
aS'pm'
p2977
aS'feels'
p2978
aS'humidity'
p2979
aS'mph'
p2980
aS'northeast'
p2981
aS'wind'
p2982
aa(lp2983
S'weather'
p2984
aaI1
aI0
aI0
aI0
aS'colorado'
p2985
asI333
(lp2986
(lp2987
S'its'
p2988
aS'hot'
p2989
aS'today'
p2990
aS'boi'
p2991
aS'aint'
p2992
aS'stepped'
p2993
aS'outside'
p2994
aS'yet'
p2995
aS'damn'
p2996
aa(lp2997
aI0
aI0
aI0
aI0
aS'north dakota'
p2998
asI335
(lp2999
(lp3000
S'flood'
p3001
aS'warning'
p3002
aS'issued'
p3003
aS'may'
p3004
aS'pm'
p3005
aS'cdt'
p3006
aS'expiring'
p3007
aS'may'
p3008
aS'pm'
p3009
aS'cdt'
p3010
aS'nws'
p3011
aS'new'
p3012
aS'orleans'
p3013
aS'http'
p3014
aS'weather'
p3015
aS'nola'
p3016
aa(lp3017
S'weather'
p3018
aS'nola'
p3019
aaI1
aI0
aI0
aI1
aS'louisiana'
p3020
asI337
(lp3021
(lp3022
S'looking'
p3023
aS'forward'
p3024
aS'finish'
p3025
aS'sacramento'
p3026
aS'today'
p3027
aS'toc'
p3028
aS'looks'
p3029
aS'like'
p3030
aS'weather'
p3031
aS'going'
p3032
aS'cooperate'
p3033
aa(lp3034
aI0
aI0
aI0
aI0
aS'california'
p3035
asI338
(lp3036
(lp3037
S'perfect'
p3038
aS'trip'
p3039
aS'snow'
p3040
aS'chevrolet'
p3041
aS'tahoe'
p3042
aa(lp3043
aI0
aI0
aI0
aI1
aS'california'
p3044
asI339
(lp3045
(lp3046
S'feels'
p3047
aS'humidity'
p3048
aS'wind'
p3049
aS'mph'
p3050
aS'se'
p3051
aS'gust'
p3052
aS'mph'
p3053
aS'pressure'
p3054
aS'mb'
p3055
aS'weather'
p3056
aa(lp3057
S'weather'
p3058
aaI1
aI0
aI0
aI1
aS'louisiana'
p3059
asI341
(lp3060
(lp3061
S'its'
p3062
aS'yeah'
p3063
aS'early'
p3064
aS'mail'
p3065
aS'delivery'
p3066
aS'around'
p3067
aS'pm'
p3068
aS'unless'
p3069
aS'weather'
p3070
aS'delays'
p3071
aS'so'
p3072
aS'excited'
p3073
aa(lp3074
aI0
aI1
aI0
aI0
aS'florida'
p3075
asI342
(lp3076
(lp3077
S'if'
p3078
aS'going'
p3079
aS'stormlet'
p3080
aS'prayers'
p3081
aS'umbrella'
p3082
aS'need'
p3083
aa(lp3084
aI0
aI1
aI1
aI0
aS'maryland'
p3085
asI344
(lp3086
(lp3087
S'its'
p3088
aS'already'
p3089
aS'snow'
p3090
aa(lp3091
aI0
aI0
aI0
aI0
aS'north carolina'
p3092
asI347
(lp3093
(lp3094
S'anjay'
p3095
aS'blm'
p3096
aS'denger'
p3097
aS'on'
p3098
aS'rainy'
p3099
aS'days'
p3100
aS'sorry'
p3101
aS'beast'
p3102
aS'entar'
p3103
aS'gue'
p3104
aS'cari'
p3105
aS'wifi'
p3106
aS'dah'
p3107
aa(lp3108
aI0
aI0
aI0
aI0
aS'florida'
p3109
asI348
(lp3110
(lp3111
S'my'
p3112
aS'taint'
p3113
aS'still'
p3114
aS'used'
p3115
aS'seat'
p3116
aS'yet'
p3117
aS'thanks'
p3118
aS'shit'
p3119
aS'weather'
p3120
aS'lately'
p3121
aS'its'
p3122
aS'gonna'
p3123
aS'get'
p3124
aS'beaten'
p3125
aS'submission'
p3126
aS'next'
p3127
aS'week'
p3128
aa(lp3129
aI0
aI0
aI0
aI0
aS'minnesota'
p3130
asI349
(lp3131
(lp3132
S'gah'
p3133
aS'hate'
p3134
aS'weather'
p3135
aS'why'
p3136
aS'hell'
p3137
aS'still'
p3138
aS'rainy'
p3139
aS'cold'
p3140
aS'reaching'
p3141
aS'june'
p3142
aS'what'
p3143
aS'guys'
p3144
aa(lp3145
aI0
aI0
aI0
aI0
aS'california'
p3146
asI351
(lp3147
(lp3148
S'really'
p3149
aS'thats'
p3150
aS'sucks'
p3151
aS'balls'
p3152
aS'from'
p3153
aS'like'
p3154
aS'july'
p3155
aS'thru'
p3156
aS'september'
p3157
aS'herecrazy'
p3158
aS'weather'
p3159
aa(lp3160
aI0
aI1
aI0
aI0
aS'ohio'
p3161
asI353
(lp3162
(lp3163
S'quiet'
p3164
aS'storm'
p3165
aS'flow'
p3166
aS'lol'
p3167
aa(lp3168
aI0
aI1
aI0
aI0
aS'michigan'
p3169
asI354
(lp3170
(lp3171
S'awesome'
p3172
aS'weather'
p3173
aS'today'
p3174
aS'cant'
p3175
aS'wait'
p3176
aS'moar'
p3177
aS'rest'
p3178
aS'week'
p3179
aa(lp3180
S'moar'
p3181
aaI1
aI0
aI0
aI0
aS'washington'
p3182
asI355
(lp3183
(lp3184
S'outside'
p3185
aS'humidity'
p3186
aS'wind'
p3187
aS'mph'
p3188
aS'press'
p3189
aS'rain'
p3190
aa(lp3191
aI0
aI0
aI0
aI0
aS'new mexico'
p3192
asI356
(lp3193
(lp3194
S'imagine'
p3195
aS'its'
p3196
aS'snowing'
p3197
aS'justin'
p3198
aS'outside'
p3199
aS'playing'
p3200
aS'he'
p3201
aS'lays'
p3202
aS'snow'
p3203
aS'lay'
p3204
aS'besides'
p3205
aS'himthan'
p3206
aS'draws'
p3207
aS'heart'
p3208
aa(lp3209
S'imagine'
p3210
aaI1
aI1
aI1
aI0
aS'rhode island'
p3211
asI358
(lp3212
(lp3213
S'im'
p3214
aS'tired'
p3215
aS'deez'
p3216
aS'rainy'
p3217
aS'days'
p3218
aa(lp3219
aI0
aI0
aI0
aI0
aS'michigan'
p3220
asI359
(lp3221
(lp3222
S'current'
p3223
aS'conditions'
p3224
aS'fair'
p3225
aS'fforecast'
p3226
aS'sat'
p3227
aS'sunny'
p3228
aS'high'
p3229
aS'low'
p3230
aS'sun'
p3231
aS'sunny'
p3232
aS'high'
p3233
aS'low'
p3234
aS'full'
p3235
aS'forecast'
p3236
aS'yahoo'
p3237
aS'weather'
p3238
aa(lp3239
aI0
aI0
aI0
aI0
aS'florida'
p3240
asI360
(lp3241
(lp3242
S'oldham'
p3243
aS'county'
p3244
aS'special'
p3245
aS'weather'
p3246
aS'statement'
p3247
aS'issued'
p3248
aS'may'
p3249
aS'pm'
p3250
aS'edt'
p3251
aS'expiring'
p3252
aS'may'
p3253
aS'pm'
p3254
aS'edt'
p3255
aS'nws'
p3256
aS'louisville'
p3257
aa(lp3258
aI0
aI0
aI0
aI1
aS'kentucky'
p3259
asI361
(lp3260
(lp3261
S'like'
p3262
aS'rain'
p3263
aS'im'
p3264
aS'digging'
p3265
aS'constant'
p3266
aS'drastic'
p3267
aS'changing'
p3268
aS'weather'
p3269
aS'allergies'
p3270
aS'ftl'
p3271
aa(lp3272
aI0
aI0
aI0
aI0
aS'utah'
p3273
asI364
(lp3274
(lp3275
S'wont'
p3276
aS'stay'
p3277
aS'so'
p3278
aS'saturday'
p3279
aS'ill'
p3280
aS'equally'
p3281
aS'angered'
p3282
aS'silly'
p3283
aS'pnw'
p3284
aS'weather'
p3285
aa(lp3286
aI0
aI1
aI0
aI0
aS'oregon'
p3287
asI365
(lp3288
(lp3289
S'every'
p3290
aS'time'
p3291
aS'call'
p3292
aS'goes'
p3293
aS'straight'
p3294
aS'vm'
p3295
aS'hope'
p3296
aS'havent'
p3297
aS'gotten'
p3298
aS'buried'
p3299
aS'snow'
p3300
aS'snow'
p3301
aa(lp3302
aI0
aI1
aI0
aI0
aS'texas'
p3303
asI367
(lp3304
(lp3305
S'per'
p3306
aS'national'
p3307
aS'weather'
p3308
aS'service'
p3309
aS'tallahassee'
p3310
aS'potential'
p3311
aS'dense'
p3312
aS'fog'
p3313
aS'late'
p3314
aS'tonight'
p3315
aS'sunday'
p3316
aS'morning'
p3317
aS'be'
p3318
aS'careful'
p3319
aa(lp3320
aI0
aI1
aI0
aI0
aS'alabama'
p3321
asI371
(lp3322
(lp3323
S'windy'
p3324
aa(lp3325
aI0
aI0
aI0
aI0
aS'nebraska'
p3326
asI372
(lp3327
(lp3328
S'bonjour'
p3329
aS'friend'
p3330
aS'hope'
p3331
aS'day'
p3332
aS'happy'
p3333
aS'sunny'
p3334
aa(lp3335
aI0
aI1
aI0
aI0
aS'virginia'
p3336
asI373
(lp3337
(lp3338
S'severe'
p3339
aS'thunderstorm'
p3340
aS'warning'
p3341
aS'calhoun'
p3342
aS'jersey'
p3343
aS'county'
p3344
aS'il'
p3345
aS'pm'
p3346
aS'cdt'
p3347
aS'ilwx'
p3348
aa(lp3349
S'ilwx'
p3350
aaI1
aI0
aI0
aI0
aS'south carolina'
p3351
asI375
(lp3352
(lp3353
S'good'
p3354
aS'luck'
p3355
aS'today'
p3356
aS'hope'
p3357
aS'weather'
p3358
aS'holds'
p3359
aS'have'
p3360
aS'fun'
p3361
aa(lp3362
aI0
aI1
aI0
aI0
aS'montana'
p3363
asI376
(lp3364
(lp3365
S'catching'
p3366
aS'stripers'
p3367
aS'rough'
p3368
aS'weather'
p3369
aS'conditions'
p3370
aa(lp3371
aI0
aI0
aI0
aI1
aS'new jersey'
p3372
asI378
(lp3373
(lp3374
S'friday'
p3375
aS'monday'
p3376
aS'hahaha'
p3377
aS'hopefully'
p3378
aS'weather'
p3379
aS'doesnt'
p3380
aS'suck'
p3381
aa(lp3382
aI0
aI1
aI0
aI0
aS'massachusetts'
p3383
asI379
(lp3384
(lp3385
S'this'
p3386
aS'walk'
p3387
aS'needed'
p3388
aS'its'
p3389
aS'windy'
p3390
aa(lp3391
aI0
aI1
aI1
aI0
aS'louisiana'
p3392
asI380
(lp3393
(lp3394
S'just'
p3395
aS'bedtime'
p3396
aS'pour'
p3397
aS'moi'
p3398
aS'lack'
p3399
aS'sleep'
p3400
aS'another'
p3401
aS'rainy'
p3402
aS'dayll'
p3403
aS'ya'
p3404
aS'spose'
p3405
aS'sunny'
p3406
aS'tomorrow'
p3407
aa(lp3408
aI0
aI0
aI0
aI0
aS'maine'
p3409
asI382
(lp3410
(lp3411
S'severe'
p3412
aS'thunderstorm'
p3413
aS'warning'
p3414
aS'issued'
p3415
aS'may'
p3416
aS'am'
p3417
aS'cdt'
p3418
aS'expiring'
p3419
aS'may'
p3420
aS'am'
p3421
aS'cdt'
p3422
aS'nws'
p3423
aS'springfield'
p3424
aS'http'
p3425
aa(lp3426
aI0
aI0
aI0
aI1
aS'texas'
p3427
asI383
(lp3428
(lp3429
S'great'
p3430
aS'question'
p3431
aS'experienced'
p3432
aS'snow'
p3433
aS'today'
p3434
aS'co'
p3435
aS'isitsummer'
p3436
aa(lp3437
S'isitsummer'
p3438
aaI1
aI1
aI0
aI0
aS'missouri'
p3439
asI384
(lp3440
(lp3441
S'antioch'
p3442
aS'going'
p3443
aS'reopen'
p3444
aS'give'
p3445
aS'degrees'
p3446
aS'fall'
p3447
aS'via'
p3448
aa(lp3449
aI0
aI1
aI0
aI1
aS'maryland'
p3450
asI387
(lp3451
(lp3452
S'its'
p3453
aS'nice'
p3454
aS'day'
p3455
aS'not'
p3456
aS'hot'
p3457
aS'cold'
p3458
aS'perfect'
p3459
aa(lp3460
aI0
aI0
aI0
aI0
aS'north carolina'
p3461
asI388
(lp3462
(lp3463
S'nothing'
p3464
aS'beats'
p3465
aS'late'
p3466
aS'night'
p3467
aS'jog'
p3468
aS'cool'
p3469
aS'degrees'
p3470
aS'ilovesummer'
p3471
aa(lp3472
S'ilovesummer'
p3473
aaI1
aI0
aI0
aI0
aS'nebraska'
p3474
asI389
(lp3475
(lp3476
S'hate'
p3477
aS'weather'
p3478
aS'change'
p3479
aS'melips'
p3480
aS'dried'
p3481
aS'need'
p3482
aS'get'
p3483
aS'home'
p3484
aS'point'
p3485
aa(lp3486
aI0
aI0
aI0
aI0
aS'florida'
p3487
asI390
(lp3488
(lp3489
S'im'
p3490
aS'glad'
p3491
aS'im'
p3492
aS'housebrandon'
p3493
aS'goin'
p3494
aS'bed'
p3495
aS'storm'
p3496
aS'going'
p3497
aa(lp3498
aI0
aI0
aI0
aI0
aS'north carolina'
p3499
asI393
(lp3500
(lp3501
S'stupid'
p3502
aS'as'
p3503
aS'weather'
p3504
aS'fuqd'
p3505
aS'me'
p3506
aS'all'
p3507
aS'up'
p3508
aS'slowd'
p3509
aS'my'
p3510
aS'internet'
p3511
aS'dwn'
p3512
aS'an'
p3513
aS'kickd'
p3514
aS'me'
p3515
aS'off'
p3516
aS'while'
p3517
aS'was'
p3518
aS'on'
p3519
aS'roll'
p3520
aS'doin'
p3521
aS'appts'
p3522
aS'like'
p3523
aS'wth'
p3524
aS'it'
p3525
aS'cudnt'
p3526
aS'wait'
p3527
aS'to'
p3528
aS'fuqi'
p3529
aa(lp3530
aI0
aI0
aI0
aI0
aS'michigan'
p3531
asI394
(lp3532
(lp3533
S'new'
p3534
aS'blog'
p3535
aS'sunshine'
p3536
aS'rainbows'
p3537
aS'and'
p3538
aS'trying'
p3539
aS'unsuccessfully'
p3540
aS'change'
p3541
aS'godgiven'
p3542
aS'purpose'
p3543
aa(lp3544
aI0
aI0
aI0
aI1
aS'minnesota'
p3545
asI398
(lp3546
(lp3547
S'tx'
p3548
aS'auto'
p3549
aS'update'
p3550
aS'special'
p3551
aS'weather'
p3552
aS'statement'
p3553
aS'issued'
p3554
aS'may'
p3555
aS'pm'
p3556
aS'cdt'
p3557
aS'expiring'
p3558
aS'may'
p3559
aS'pm'
p3560
aS'cdt'
p3561
aS'nws'
p3562
aa(lp3563
aI0
aI0
aI0
aI1
aS'texas'
p3564
asI399
(lp3565
(lp3566
S'what'
p3567
aS'weather'
p3568
aS'jackson'
p3569
aS'hole'
p3570
aS'wyoming'
p3571
aS'kid'
p3572
aS'friendly'
p3573
aS'activities'
p3574
aS'jackson'
p3575
aS'wyoming'
p3576
aa(lp3577
aI0
aI0
aI0
aI1
aS'wyoming'
p3578
asI401
(lp3579
(lp3580
S'point'
p3581
aS'view'
p3582
aS'ass'
p3583
aS'may'
p3584
aS'cold'
p3585
aS'outside'
p3586
aS'this'
p3587
aS'picture'
p3588
aS'wrong'
p3589
aa(lp3590
aI0
aI1
aI0
aI0
aS'kentucky'
p3591
asI402
(lp3592
(lp3593
S'good'
p3594
aS'morning'
p3595
aS'sunshine'
p3596
aS'hope'
p3597
aS'frozen'
p3598
aS'strawberrymango'
p3599
aS'margarita'
p3600
aS'didnt'
p3601
aS'knock'
p3602
aS'last'
p3603
aS'night'
p3604
aS'goodtimes'
p3605
aa(lp3606
S'goodtimes'
p3607
aaI1
aI1
aI0
aI0
aS'nevada'
p3608
asI404
(lp3609
(lp3610
S'severe'
p3611
aS'weather'
p3612
aS'threatens'
p3613
aS'tornado'
p3614
aS'watches'
p3615
aS'effect'
p3616
aS'tuesday'
p3617
aS'afternoon'
p3618
aS'texas'
p3619
aS'oklahoma'
p3620
aS'kansas'
p3621
aa(lp3622
aI0
aI0
aI0
aI1
aS'massachusetts'
p3623
asI406
(lp3624
(lp3625
S'jealous'
p3626
aS'brookings'
p3627
aS'marathoners'
p3628
aS'today'
p3629
aS'perfect'
p3630
aS'racing'
p3631
aS'weather'
p3632
aa(lp3633
aI0
aI0
aI0
aI0
aS'south dakota'
p3634
asI408
(lp3635
(lp3636
S'know'
p3637
aS'gettin'
p3638
aS'hot'
p3639
aS'atl'
p3640
aS'dont'
p3641
aS'play'
p3642
aS'yaself'
p3643
aS'put'
p3644
aS'wedges'
p3645
aa(lp3646
aI0
aI1
aI0
aI0
aS'new york'
p3647
asI410
(lp3648
(lp3649
S'losangeles'
p3650
aS'los'
p3651
aS'angeles'
p3652
aS'regional'
p3653
aS'weather'
p3654
aS'forecast'
p3655
aa(lp3656
S'losangeles'
p3657
aaI1
aI0
aI0
aI1
aS'california'
p3658
asI412
(lp3659
(lp3660
S'it'
p3661
aS'freezing'
p3662
aS'office'
p3663
aa(lp3664
aI0
aI1
aI0
aI0
aS'utah'
p3665
asI413
(lp3666
(lp3667
S'mention'
p3668
aS'sparklers'
p3669
aS'snow'
p3670
aS'big'
p3671
aS'announcement'
p3672
aS'coming'
p3673
aS'tomorrow'
p3674
aS'live'
p3675
aS'exotic'
p3676
aS'bird'
p3677
aS'sanctuary'
p3678
aS'snowbird'
p3679
aS'center'
p3680
aa(lp3681
aI0
aI0
aI0
aI0
aS'arizona'
p3682
asI414
(lp3683
(lp3684
S'another'
p3685
aS'great'
p3686
aS'day'
p3687
aS'despite'
p3688
aS'weather'
p3689
aa(lp3690
aI0
aI0
aI0
aI0
aS'south carolina'
p3691
asI415
(lp3692
(lp3693
S'lol'
p3694
aS'crazy'
p3695
aS'weather'
p3696
aa(lp3697
aI0
aI1
aI1
aI0
aS'michigan'
p3698
asI416
(lp3699
(lp3700
S'another'
p3701
aS'windy'
p3702
aS'day'
p3703
aS'yay'
p3704
aa(lp3705
aI0
aI0
aI0
aI0
aS'new mexico'
p3706
asI417
(lp3707
(lp3708
S'ughhh'
p3709
aS'hot'
p3710
aS'this'
p3711
aS'degree'
p3712
aS'weather'
p3713
aS'killing'
p3714
aa(lp3715
aI0
aI0
aI0
aI0
aS'tennessee'
p3716
asI418
(lp3717
(lp3718
S'fear'
p3719
aS'cold'
p3720
aS'calling'
p3721
aS'prospecting'
p3722
aS'network'
p3723
aS'marketing'
p3724
aS'check'
p3725
aS'fear'
p3726
aS'cold'
p3727
aS'ca'
p3728
aa(lp3729
aI0
aI0
aI0
aI1
aS'wisconsin'
p3730
asI422
(lp3731
(lp3732
S'oclock'
p3733
aS'prktice'
p3734
aS'nd'
p3735
aS'degrees'
p3736
aS'damn'
p3737
aS'thts'
p3738
aS'death'
p3739
aS'get'
p3740
aS'purple'
p3741
aS'gatorade'
p3742
aS'today'
p3743
aa(lp3744
S'death'
p3745
aaI1
aI1
aI0
aI0
aS'north carolina'
p3746
asI423
(lp3747
(lp3748
S'funnel'
p3749
aS'cloud'
p3750
aS'spotted'
p3751
aS'storm'
p3752
aS'tornado'
p3753
aS'could'
p3754
aS'touchdown'
p3755
aS'moment'
p3756
aS'its'
p3757
aS'going'
p3758
aS'pass'
p3759
aS'close'
p3760
aS'downtown'
p3761
aS'memphis'
p3762
aS'area'
p3763
aa(lp3764
aI0
aI0
aI0
aI0
aS'alabama'
p3765
asI424
(lp3766
(lp3767
S'come'
p3768
aS'enjoy'
p3769
aS'amazing'
p3770
aS'weather'
p3771
aS'meet'
p3772
aS'fabulous'
p3773
aS'dogs'
p3774
aS'oreillys'
p3775
aS'downtown'
p3776
aS'tonight'
p3777
aS'pm'
p3778
aa(lp3779
aI0
aI0
aI0
aI0
aS'indiana'
p3780
asI425
(lp3781
(lp3782
S'there'
p3783
aS'days'
p3784
aS'truly'
p3785
aS'miss'
p3786
aS'big'
p3787
aS'backyards'
p3788
aS'grilling'
p3789
aS'thunderstorms'
p3790
aS'leinies'
p3791
aS'forgetting'
p3792
aS'tech'
p3793
aS'rat'
p3794
aS'race'
p3795
aS'midwest'
p3796
aa(lp3797
S'midwest'
p3798
aaI1
aI0
aI0
aI0
aS'california'
p3799
asI427
(lp3800
(lp3801
S'charlotte'
p3802
aS'nc'
p3803
aS'currently'
p3804
aS'degrees'
p3805
aS'mostly'
p3806
aS'cloudy'
p3807
aS'chance'
p3808
aS'rain'
p3809
aS'morning'
p3810
aS'highs'
p3811
aS'lower'
p3812
aa(lp3813
aI0
aI0
aI0
aI0
aS'district of columbia'
p3814
asI428
(lp3815
(lp3816
S'hate'
p3817
aS'cloudy'
p3818
aS'weather'
p3819
aa(lp3820
aI0
aI0
aI0
aI0
aS'georgia'
p3821
asI429
(lp3822
(lp3823
S'cool'
p3824
aS'kid'
p3825
aS'it'
p3826
aS'hot'
p3827
aS'lol'
p3828
aa(lp3829
aI0
aI1
aI0
aI0
aS'virginia'
p3830
asI432
(lp3831
(lp3832
S'damn'
p3833
aS'hot'
p3834
aS'cooking'
p3835
aS'grease'
p3836
aa(lp3837
aI0
aI1
aI1
aI0
aS'florida'
p3838
asI434
(lp3839
(lp3840
S'onite'
p3841
aS'isolated'
p3842
aS'evening'
p3843
aS'shower'
p3844
aS'clearing'
p3845
aS'lows'
p3846
aS'sat'
p3847
aS'mo'
p3848
aS'sunny'
p3849
aS'highs'
p3850
aS'near'
p3851
aS'sun'
p3852
aS'partly'
p3853
aS'cloudy'
p3854
aS'highs'
p3855
aS'near'
p3856
aa(lp3857
aI0
aI0
aI0
aI0
aS'virginia'
p3858
asI437
(lp3859
(lp3860
S'well'
p3861
aS'hot'
p3862
aS'outside'
p3863
aa(lp3864
aI0
aI0
aI0
aI0
aS'florida'
p3865
asI438
(lp3866
(lp3867
S'yoga'
p3868
aS'isnt'
p3869
aS'pretty'
p3870
aS'either'
p3871
aS'haha'
p3872
aS'very'
p3873
aS'little'
p3874
aS'humidity'
p3875
aS'sf'
p3876
aS'compared'
p3877
aS'east'
p3878
aS'great'
p3879
aS'allergies'
p3880
aa(lp3881
aI0
aI1
aI0
aI0
aS'california'
p3882
asI439
(lp3883
(lp3884
S'why'
p3885
aS'smell'
p3886
aS'like'
p3887
aS'rain'
p3888
aS'greenbeancassarole'
p3889
aS'apt'
p3890
aS'now'
p3891
aS'want'
p3892
aS'go'
p3893
aS'lutheran'
p3894
aS'picnic'
p3895
aa(lp3896
S'rain'
p3897
aS'greenbeancassarole'
p3898
aaI1
aI0
aI0
aI0
aS'minnesota'
p3899
asI440
(lp3900
(lp3901
S'inch'
p3902
aS'past'
p3903
aS'bent'
p3904
aS'freezin'
p3905
aS'breaking'
p3906
aS'lol'
p3907
aa(lp3908
S'breaking'
p3909
aaI1
aI0
aI0
aI0
aS'alabama'
p3910
asI442
(lp3911
(lp3912
S'somebody'
p3913
aS'inform'
p3914
aS'weather'
p3915
aS'outside'
p3916
aS'scsu'
p3917
aS'campus'
p3918
aa(lp3919
S'scsu'
p3920
aaI1
aI0
aI0
aI0
aS'connecticut'
p3921
asI443
(lp3922
(lp3923
S'youre'
p3924
aS'right'
p3925
aS'cold'
p3926
aS'weatherblooms'
p3927
aS'my'
p3928
aS'rose'
p3929
aS'bushes'
p3930
aS'really'
p3931
aS'showing'
p3932
aS'year'
p3933
aS'happy'
p3934
aS'monday'
p3935
aa(lp3936
aI0
aI1
aI0
aI0
aS'new mexico'
p3937
asI444
(lp3938
(lp3939
S'its'
p3940
aS'little'
p3941
aS'chilly'
p3942
aa(lp3943
aI0
aI0
aI0
aI0
aS'illinois'
p3944
asI446
(lp3945
(lp3946
S'armageddon'
p3947
aS'honestly'
p3948
aS'imagine'
p3949
aS'cavemen'
p3950
aS'thought'
p3951
aS'ridiculous'
p3952
aS'thunderstorms'
p3953
aa(lp3954
aI0
aI1
aI1
aI0
aS'pennsylvania'
p3955
asI447
(lp3956
(lp3957
S'there'
p3958
aS'aint'
p3959
aS'sunshine'
p3960
aS'shes'
p3961
aS'gone'
p3962
aa(lp3963
aI0
aI0
aI0
aI0
aS'texas'
p3964
asI448
(lp3965
(lp3966
S'how'
p3967
aS'typical'
p3968
aS'hailing'
p3969
aS'lt'
p3970
aS'hours'
p3971
aS'ago'
p3972
aS'winter'
p3973
aS'coat'
p3974
aS'glorious'
p3975
aS'summer'
p3976
aS'day'
p3977
aS'still'
p3978
aS'very'
p3979
aS'windy'
p3980
aa(lp3981
aI0
aI0
aI0
aI0
aS'maine'
p3982
asI450
(lp3983
(lp3984
S'lmfaort'
p3985
aS'score'
p3986
aS'dnt'
p3987
aS'even'
p3988
aS'luk'
p3989
aS'like'
p3990
aS'score'
p3991
aS'look'
p3992
aS'like'
p3993
aS'weather'
p3994
aS'highest'
p3995
aS'day'
p3996
aa(lp3997
aI0
aI1
aI1
aI0
aS'california'
p3998
asI452
(lp3999
(lp4000
S'storm'
p4001
aS'clouds'
p4002
aS'thursday'
p4003
aS'kansas'
p4004
aa(lp4005
aI0
aI0
aI0
aI1
aS'kansas'
p4006
asI453
(lp4007
(lp4008
S'sipping'
p4009
aS'tea'
p4010
aS'uploading'
p4011
aS'stuff'
p4012
aS'onto'
p4013
aS'itunes'
p4014
aS'quiet'
p4015
aS'storm'
p4016
aa(lp4017
aI0
aI0
aI0
aI0
aS'kansas'
p4018
asI454
(lp4019
(lp4020
S'if'
p4021
aS'could'
p4022
aS'make'
p4023
aS'rain'
p4024
aS'today'
p4025
aS'wash'
p4026
aS'away'
p4027
aS'sunny'
p4028
aS'day'
p4029
aS'gutter'
p4030
aS'would'
p4031
aS'get'
p4032
aS'change'
p4033
aS'pace'
p4034
aa(lp4035
aI0
aI0
aI0
aI0
aS'arizona'
p4036
asI455
(lp4037
(lp4038
S'my'
p4039
aS'room'
p4040
aS'freezing'
p4041
aS'brrrr'
p4042
aa(lp4043
aI0
aI0
aI0
aI0
aS'maine'
p4044
asI456
(lp4045
(lp4046
S'sad'
p4047
aS'lvng'
p4048
aS'las'
p4049
aS'vegas'
p4050
aS'amazing'
p4051
aS'asi'
p4052
aS'conf'
p4053
aS'fri'
p4054
aS'th'
p4055
aS'rules'
p4056
aS'though'
p4057
aS'flight'
p4058
aS'delayed'
p4059
aS'bad'
p4060
aS'weather'
p4061
aS'chicago'
p4062
aS'innov'
p4063
aa(lp4064
S'innov'
p4065
aaI1
aI1
aI1
aI0
aS'district of columbia'
p4066
asI457
(lp4067
(lp4068
S'this'
p4069
aS'weather'
p4070
aS'kiss'
p4071
aS'ass'
p4072
aa(lp4073
aI0
aI0
aI0
aI0
aS'texas'
p4074
asI458
(lp4075
(lp4076
S'freezing'
p4077
aa(lp4078
aI0
aI0
aI0
aI0
aS'connecticut'
p4079
asI459
(lp4080
(lp4081
S'could'
p4082
aS'care'
p4083
aS'less'
p4084
aS'degrees'
p4085
aS'its'
p4086
aS'last'
p4087
aS'day'
p4088
aS'spring'
p4089
aS'semester'
p4090
aS'im'
p4091
aS'dressing'
p4092
aS'springy'
p4093
aS'my'
p4094
aS'toes'
p4095
aS'suffer'
p4096
aa(lp4097
aI0
aI0
aI0
aI0
aS'ohio'
p4098
asI462
(lp4099
(lp4100
S'wish'
p4101
aS'summer'
p4102
aS'chicago'
p4103
aS'still'
p4104
aS'grilled'
p4105
aS'nice'
p4106
aS'skirt'
p4107
aS'steak'
p4108
aS'degree'
p4109
aS'drizzly'
p4110
aS'weather'
p4111
aa(lp4112
aI0
aI1
aI0
aI0
aS'illinois'
p4113
asI464
(lp4114
(lp4115
S'love'
p4116
aS'rainy'
p4117
aS'days'
p4118
aa(lp4119
aI0
aI0
aI0
aI0
aS'arizona'
p4120
asI465
(lp4121
(lp4122
S'another'
p4123
aS'sunny'
p4124
aS'thundering'
p4125
aS'eveningwtf'
p4126
aa(lp4127
aI0
aI0
aI0
aI0
aS'colorado'
p4128
asI466
(lp4129
(lp4130
S'dude'
p4131
aS'dont'
p4132
aS'care'
p4133
aS'what'
p4134
aS'the'
p4135
aS'weather'
p4136
aS'is'
p4137
aa(lp4138
aI0
aI0
aI0
aI0
aS'texas'
p4139
asI467
(lp4140
(lp4141
S'how'
p4142
aS'gna'
p4143
aS'good'
p4144
aS'weather'
p4145
aS'one'
p4146
aS'day'
p4147
aS'shitty'
p4148
aS'weather'
p4149
aS'next'
p4150
aS'fuk'
p4151
aS'mothernature'
p4152
aa(lp4153
S'mothernature'
p4154
aaI1
aI0
aI0
aI0
aS'west virginia'
p4155
asI469
(lp4156
(lp4157
S'suffering'
p4158
aS'storm'
p4159
aS'phobia'
p4160
aa(lp4161
aI0
aI0
aI0
aI0
aS'california'
p4162
asI470
(lp4163
(lp4164
S'cant'
p4165
aS'hate'
p4166
aS'weather'
p4167
aS'bc'
p4168
aS'id'
p4169
aS'rather'
p4170
aS'deal'
p4171
aS'degree'
p4172
aS'ball'
p4173
aS'sweat'
p4174
aa(lp4175
aI0
aI0
aI0
aI0
aS'pennsylvania'
p4176
asI472
(lp4177
(lp4178
S'finally'
p4179
aS'get'
p4180
aS'nice'
p4181
aS'day'
p4182
aS'weather'
p4183
aa(lp4184
aI0
aI0
aI0
aI0
aS'north carolina'
p4185
asI473
(lp4186
(lp4187
S'thunderstorms'
p4188
aS'cant'
p4189
aS'sleep'
p4190
aS'perfect'
p4191
aS'mind'
p4192
aS'settler'
p4193
aS'pouring'
p4194
aa(lp4195
S'pouring'
p4196
aaI1
aI0
aI0
aI0
aS'connecticut'
p4197
asI474
(lp4198
(lp4199
S'weather'
p4200
aS'looking'
p4201
aS'clear'
p4202
aS'headed'
p4203
aS'dover'
p4204
aS'day'
p4205
aS'nascar'
p4206
aS'bigdirtyblog'
p4207
aa(lp4208
S'bigdirtyblog'
p4209
aaI1
aI0
aI0
aI0
aS'delaware'
p4210
asI476
(lp4211
(lp4212
S'guys'
p4213
aS'storm'
p4214
aS'blown'
p4215
aS'thank'
p4216
aS'jesus'
p4217
aS'my'
p4218
aS'house'
p4219
aS'minor'
p4220
aS'damage'
p4221
aS'thanks'
p4222
aS'prayers'
p4223
aa(lp4224
aI0
aI1
aI1
aI0
aS'washington'
p4225
asI477
(lp4226
(lp4227
S'no'
p4228
aS'better'
p4229
aS'day'
p4230
aS'buy'
p4231
aS'car'
p4232
aS'rainy'
p4233
aS'day'
p4234
aa(lp4235
aI0
aI0
aI0
aI0
aS'oklahoma'
p4236
asI478
(lp4237
(lp4238
S'cant'
p4239
aS'open'
p4240
aS'office'
p4241
aS'storm'
p4242
aS'window'
p4243
aS'boo'
p4244
aS'want'
p4245
aS'enjoy'
p4246
aS'fantastically'
p4247
aS'warm'
p4248
aS'weather'
p4249
aa(lp4250
aI0
aI0
aI0
aI0
aS'minnesota'
p4251
asI479
(lp4252
(lp4253
S'how'
p4254
aS'damn'
p4255
aS'depressing'
p4256
aS'weather'
p4257
aa(lp4258
S'weather'
p4259
aaI1
aI0
aI0
aI1
aS'new hampshire'
p4260
asI480
(lp4261
(lp4262
S'is'
p4263
aS'damn'
p4264
aS'storm'
p4265
aS'coming'
p4266
aa(lp4267
aI0
aI0
aI0
aI0
aS'new mexico'
p4268
asI483
(lp4269
(lp4270
S'weather'
p4271
aS'get'
p4272
aS'better'
p4273
aS'new'
p4274
aS'england'
p4275
aa(lp4276
aI0
aI0
aI0
aI0
aS'south dakota'
p4277
asI486
(lp4278
(lp4279
S'ok'
p4280
aS'heres'
p4281
aS'thing'
p4282
aS'wanted'
p4283
aS'crappy'
p4284
aS'weather'
p4285
aS'late'
p4286
aS'year'
p4287
aS'id'
p4288
aS'move'
p4289
aS'another'
p4290
aS'state'
p4291
aS'pullyourselftogetherca'
p4292
aa(lp4293
S'pullyourselftogetherca'
p4294
aaI1
aI0
aI0
aI0
aS'california'
p4295
asI487
(lp4296
(lp4297
S'hot'
p4298
aS'outside'
p4299
aa(lp4300
aI0
aI1
aI0
aI0
aS'georgia'
p4301
asI488
(lp4302
(lp4303
S'goodmorning'
p4304
aS'sunshine'
p4305
aS'lt'
p4306
aS'can'
p4307
aa(lp4308
aI0
aI1
aI0
aI0
aS'rhode island'
p4309
asI489
(lp4310
(lp4311
S'thiss'
p4312
aS'shitty'
p4313
aS'ass'
p4314
aS'weather'
p4315
aS'gets'
p4316
aS'on'
p4317
aS'my'
p4318
aS'fuckingg'
p4319
aS'nerves'
p4320
aS'ihatethespringg'
p4321
aa(lp4322
S'ihatethespringg'
p4323
aaI1
aI0
aI0
aI0
aS'illinois'
p4324
asI491
(lp4325
(lp4326
S'weather'
p4327
aS'pm'
p4328
aS'feels'
p4329
aS'humidity'
p4330
aS'mph'
p4331
aS'north'
p4332
aS'wind'
p4333
aa(lp4334
S'weather'
p4335
aaI1
aI0
aI0
aI0
aS'nevada'
p4336
asI494
(lp4337
(lp4338
S'taking'
p4339
aS'dog'
p4340
aS'walk'
p4341
aS'early'
p4342
aS'morning'
p4343
aS'believe'
p4344
aS'perfect'
p4345
aS'start'
p4346
aS'chilly'
p4347
aS'day'
p4348
aa(lp4349
aI0
aI0
aI0
aI0
aS'south carolina'
p4350
asI495
(lp4351
(lp4352
S'this'
p4353
aS'weather'
p4354
aS'kinda'
p4355
aS'crazy'
p4356
aa(lp4357
aI0
aI0
aI0
aI0
aS'oregon'
p4358
asI496
(lp4359
(lp4360
S'alliwantis'
p4361
aS'weather'
p4362
aS'make'
p4363
aS'mind'
p4364
aS'gonna'
p4365
aS'rain'
p4366
aS'snow'
p4367
aS'sunny'
p4368
aS'etc'
p4369
aa(lp4370
S'alliwantis'
p4371
aaI1
aI1
aI1
aI0
aS'virginia'
p4372
asI498
(lp4373
(lp4374
S'of'
p4375
aS'flights'
p4376
aS'united'
p4377
aS'airlines'
p4378
aS'best'
p4379
aS'ontime'
p4380
aS'record'
p4381
aS'medical'
p4382
aS'emergencies'
p4383
aS'arent'
p4384
aS'fault'
p4385
aS'not'
p4386
aS'harsh'
p4387
aS'weather'
p4388
aa(lp4389
aI0
aI1
aI1
aI0
aS'california'
p4390
asI499
(lp4391
(lp4392
S'patiently'
p4393
aS'waiting'
p4394
aS'soft'
p4395
aS'summer'
p4396
aS'sunshine'
p4397
aa(lp4398
aI0
aI0
aI0
aI0
aS'massachusetts'
p4399
asI500
(lp4400
(lp4401
S'extended'
p4402
aS'forecast'
p4403
aS'wednesday'
p4404
aS'rain'
p4405
aS'tuesday'
p4406
aS'course'
p4407
aS'done'
p4408
aS'studying'
p4409
aS'sunfail'
p4410
aa(lp4411
S'rain'
p4412
aaI1
aI0
aI0
aI0
aS'ohio'
p4413
asI501
(lp4414
(lp4415
S'on'
p4416
aS'rainy'
p4417
aS'days'
p4418
aS'mondays'
p4419
aS'my'
p4420
aS'tweeps'
p4421
aS'dont'
p4422
aS'let'
p4423
aS'me'
p4424
aS'down'
p4425
aa(lp4426
aI0
aI1
aI1
aI0
aS'kentucky'
p4427
asI502
(lp4428
(lp4429
S'this'
p4430
aS'weather'
p4431
aS'woof'
p4432
aa(lp4433
aI0
aI0
aI0
aI0
aS'kansas'
p4434
asI504
(lp4435
(lp4436
S'statesville'
p4437
aS'nc'
p4438
aS'weather'
p4439
aS'pm'
p4440
aS'fair'
p4441
aS'skies'
p4442
aS'temp'
p4443
aS'wind'
p4444
aS'rain'
p4445
aS'today'
p4446
aa(lp4447
aI0
aI0
aI0
aI0
aS'north carolina'
p4448
asI505
(lp4449
(lp4450
S'nowplaying'
p4451
aS'my'
p4452
aS'dick'
p4453
aS'big'
p4454
aS'pun'
p4455
aS'feat'
p4456
aS'tony'
p4457
aS'sunshine'
p4458
aS'oyh'
p4459
aa(lp4460
S'nowplaying'
p4461
aS'oyh'
p4462
aaI1
aI0
aI0
aI0
aS'florida'
p4463
asI506
(lp4464
(lp4465
S'whats'
p4466
aS'refreshing'
p4467
aS'sunny'
p4468
aS'day'
p4469
aS'fried'
p4470
aS'fish'
p4471
aS'sandwich'
p4472
aS'topped'
p4473
aS'coleslaw'
p4474
aS'italian'
p4475
aS'tuna'
p4476
aS'mixed'
p4477
aS'green'
p4478
aS'salad'
p4479
aa(lp4480
aI0
aI0
aI0
aI0
aS'rhode island'
p4481
asI507
(lp4482
(lp4483
S'weather'
p4484
aS'forecast'
p4485
aS'is'
p4486
aS'website'
p4487
aS'shows'
p4488
aS'exactly'
p4489
aS'weather'
p4490
aS'forecast'
p4491
aa(lp4492
aI0
aI0
aI0
aI1
aS'alaska'
p4493
asI508
(lp4494
(lp4495
S'um'
p4496
aS'thank'
p4497
aS'goodness'
p4498
aS'checked'
p4499
aS'weather'
p4500
aS'santa'
p4501
aS'barbara'
p4502
aS'weekend'
p4503
aS'would'
p4504
aS'froze'
p4505
aS'dewth'
p4506
aS'summer'
p4507
aS'dresses'
p4508
aa(lp4509
aI0
aI0
aI0
aI0
aS'texas'
p4510
asI509
(lp4511
(lp4512
S'cannot'
p4513
aS'suffer'
p4514
aS'weather'
p4515
aS'im'
p4516
aS'sick'
p4517
aS'gtlt'
p4518
aS'the'
p4519
aS'final'
p4520
aS'exam'
p4521
aS'coming'
p4522
aS'so'
p4523
aS'worry'
p4524
aa(lp4525
aI0
aI0
aI0
aI0
aS'hawaii'
p4526
asI511
(lp4527
(lp4528
S'plan'
p4529
aS'pretty'
p4530
aS'picnic'
p4531
aS'cant'
p4532
aS'predict'
p4533
aS'weather'
p4534
aa(lp4535
aI0
aI1
aI1
aI0
aS'oklahoma'
p4536
asI513
(lp4537
(lp4538
S'yes'
p4539
aS'sir'
p4540
aS'thunderstorm'
p4541
aa(lp4542
S'thunderstorm'
p4543
aaI1
aI1
aI0
aI0
aS'florida'
p4544
asI514
(lp4545
(lp4546
S'nws'
p4547
aS'kscity'
p4548
aS'issues'
p4549
aS'severe'
p4550
aS'thunderstorm'
p4551
aS'warning'
p4552
aS'atchisondoniphanjohnsonleavenworthwyandotte'
p4553
aS'co'
p4554
aS'til'
p4555
aS'pm'
p4556
aS'cdt'
p4557
aa(lp4558
S'kscity'
p4559
aaI1
aI0
aI0
aI1
aS'kansas'
p4560
asI515
(lp4561
(lp4562
S'rt'
p4563
aS'im'
p4564
aS'loving'
p4565
aS'cloudy'
p4566
aS'weather'
p4567
aa(lp4568
aI0
aI1
aI1
aI0
aS'texas'
p4569
asI516
(lp4570
(lp4571
S'gorgeous'
p4572
aS'weather'
p4573
aS'way'
p4574
aS'have'
p4575
aS'pool'
p4576
aS'spa'
p4577
aS'ready'
p4578
aS'long'
p4579
aS'weekend'
p4580
aS'coming'
p4581
aS'frisco'
p4582
aS'pools'
p4583
aS'needs'
p4584
aa(lp4585
aI0
aI0
aI0
aI0
aS'new hampshire'
p4586
asI519
(lp4587
(lp4588
S'ive'
p4589
aS'feed'
p4590
aS'lambs'
p4591
aS'cold'
p4592
aS'mind'
p4593
aS'going'
p4594
aS'rain'
p4595
aS'thank'
p4596
aS'goodness'
p4597
aa(lp4598
aI0
aI1
aI0
aI0
aS'pennsylvania'
p4599
asI521
(lp4600
(lp4601
S'make'
p4602
aS'tax'
p4603
aS'deductible'
p4604
aS'donation'
p4605
aS'get'
p4606
aS'bikes'
p4607
aS'transportation'
p4608
aS'al'
p4609
aS'storm'
p4610
aS'victims'
p4611
aa(lp4612
aI0
aI1
aI0
aI1
aS'alabama'
p4613
asI524
(lp4614
(lp4615
S'just'
p4616
aS'watching'
p4617
aS'storm'
p4618
aS'come'
p4619
aS'south'
p4620
aS'getting'
p4621
aS'ready'
p4622
aS'get'
p4623
aS'sleep'
p4624
aa(lp4625
aI0
aI1
aI0
aI0
aS'montana'
p4626
asI525
(lp4627
(lp4628
S'looks'
p4629
aS'like'
p4630
aS'january'
p4631
aS'weather'
p4632
aS'finally'
p4633
aS'showed'
p4634
aS'may'
p4635
aa(lp4636
aI0
aI0
aI0
aI1
aS'washington'
p4637
asI527
(lp4638
(lp4639
S'stupid'
p4640
aS'thunderstorms'
p4641
aS'gonna'
p4642
aS'visit'
p4643
aS'leefenwell'
p4644
aS'house'
p4645
aS'im'
p4646
aS'stuck'
p4647
aS'inside'
p4648
aS'oh'
p4649
aS'well'
p4650
aS'maybe'
p4651
aS'tomorrow'
p4652
aS'va'
p4653
aa(lp4654
S'va'
p4655
aaI1
aI0
aI0
aI0
aS'pennsylvania'
p4656
asI529
(lp4657
(lp4658
S'the'
p4659
aS'spc'
p4660
aS'says'
p4661
aS'may'
p4662
aS'issue'
p4663
aS'tornado'
p4664
aS'watch'
p4665
aS'soon'
p4666
aS'threat'
p4667
aS'severe'
p4668
aS'weather'
p4669
aS'northern'
p4670
aS'central'
p4671
aS'il'
p4672
aS'in'
p4673
aa(lp4674
aI0
aI0
aI0
aI0
aS'georgia'
p4675
asI530
(lp4676
(lp4677
S'summer'
p4678
aS'preview'
p4679
aS'today'
p4680
aS'sunny'
p4681
aS'high'
p4682
aS'enjoy'
p4683
aS'rain'
p4684
aS'moves'
p4685
aS'rest'
p4686
aS'week'
p4687
aS'ugh'
p4688
aa(lp4689
aI0
aI0
aI0
aI0
aS'ohio'
p4690
asI531
(lp4691
(lp4692
S'weathers'
p4693
aS'gone'
p4694
aS'freakin'
p4695
aS'nuts'
p4696
aa(lp4697
aI0
aI0
aI0
aI0
aS'south carolina'
p4698
asI532
(lp4699
(lp4700
S'think'
p4701
aS'weather'
p4702
aS'got'
p4703
aS'ppl'
p4704
aS'mood'
p4705
aS'just'
p4706
aS'smile'
p4707
aa(lp4708
aI0
aI1
aI0
aI0
aS'virginia'
p4709
asI533
(lp4710
(lp4711
S'severe'
p4712
aS'thunderstorm'
p4713
aS'warning'
p4714
aS'issued'
p4715
aS'may'
p4716
aS'am'
p4717
aS'cdt'
p4718
aS'expiring'
p4719
aS'may'
p4720
aS'am'
p4721
aS'cdt'
p4722
aS'nws'
p4723
aS'houston'
p4724
aS'galveston'
p4725
aa(lp4726
aI0
aI0
aI0
aI1
aS'texas'
p4727
asI534
(lp4728
(lp4729
S'dress'
p4730
aS'skirt'
p4731
aS'oh'
p4732
aS'yeah'
p4733
aS'rains'
p4734
aS'im'
p4735
aS'going'
p4736
aS'dont'
p4737
aS'bar'
p4738
aS'hop'
p4739
aS'nasty'
p4740
aS'weather'
p4741
aS'im'
p4742
aS'white'
p4743
aa(lp4744
aI0
aI1
aI0
aI0
aS'pennsylvania'
p4745
asI535
(lp4746
(lp4747
S'childhoodmemories'
p4748
aS'havin'
p4749
aS'snow'
p4750
aS'ball'
p4751
aS'fights'
p4752
aS'rblock'
p4753
aS'girls'
p4754
aS'boysdj'
p4755
aS'fucked'
p4756
aS'eye'
p4757
aS'fucking'
p4758
aS'iceball'
p4759
aS'time'
p4760
aS'lol'
p4761
aa(lp4762
S'childhoodmemories'
p4763
aaI1
aI0
aI0
aI0
aS'michigan'
p4764
asI537
(lp4765
(lp4766
S'indiana'
p4767
aS'asking'
p4768
aS'residents'
p4769
aS'report'
p4770
aS'storm'
p4771
aS'damage'
p4772
aS'wavenews'
p4773
aa(lp4774
S'wavenews'
p4775
aaI1
aI0
aI0
aI1
aS'kentucky'
p4776
asI538
(lp4777
(lp4778
S'rainy'
p4779
aS'aloha'
p4780
aS'friday'
p4781
aa(lp4782
aI0
aI0
aI0
aI1
aS'hawaii'
p4783
asI539
(lp4784
(lp4785
S'whats'
p4786
aS'workout'
p4787
aS'so'
p4788
aS'crappy'
p4789
aS'cold'
p4790
aS'outside'
p4791
aS'busyday'
p4792
aa(lp4793
S'busyday'
p4794
aaI1
aI0
aI0
aI0
aS'iowa'
p4795
asI542
(lp4796
(lp4797
S'ncwx'
p4798
aS'conditions'
p4799
aS'raleigh'
p4800
aS'nc'
p4801
aS'pm'
p4802
aS'edt'
p4803
aS'current'
p4804
aS'conditions'
p4805
aS'cloudy'
p4806
aS'fforecast'
p4807
aS'fri'
p4808
aS'isolated'
p4809
aS'thunderstorms'
p4810
aS'high'
p4811
aS'low'
p4812
aa(lp4813
S'ncwx'
p4814
aaI1
aI0
aI0
aI0
aS'north carolina'
p4815
asI544
(lp4816
(lp4817
S'its'
p4818
aS'hot'
p4819
aS'devils'
p4820
aS'armpits'
p4821
aa(lp4822
aI0
aI0
aI0
aI0
aS'florida'
p4823
asI545
(lp4824
(lp4825
S'sleeping'
p4826
aS'bag'
p4827
aS'sandwiches'
p4828
aS'beer'
p4829
aS'snackz'
p4830
aS'grad'
p4831
aS'chairs'
p4832
aS'sunshine'
p4833
aS'tringirlproblems'
p4834
aa(lp4835
S'tringirlproblems'
p4836
aaI1
aI0
aI0
aI1
aS'connecticut'
p4837
asI546
(lp4838
(lp4839
S'been'
p4840
aS'weather'
p4841
aS'feeling'
p4842
aS'blah'
p4843
aS'can'
p4844
aS'anyone'
p4845
aS'send'
p4846
aS'something'
p4847
aS'cheer'
p4848
aS'my'
p4849
aS'cat'
p4850
aS'rhett'
p4851
aS'great'
p4852
aS'comfort'
p4853
aa(lp4854
aI0
aI0
aI0
aI0
aS'ohio'
p4855
asI548
(lp4856
(lp4857
S'sfcubs'
p4858
aS'game'
p4859
aS'postponed'
p4860
aS'due'
p4861
aS'weather'
p4862
aa(lp4863
aI0
aI0
aI0
aI0
aS'oregon'
p4864
asI549
(lp4865
(lp4866
S'the'
p4867
aS'wind'
p4868
aS'carry'
p4869
aS'voice'
p4870
aS'people'
p4871
aS'gorgeous'
p4872
aS'compilation'
p4873
aS'album'
p4874
aS'artists'
p4875
aS'proceeds'
p4876
aS'go'
p4877
aS'storm'
p4878
aS'relief'
p4879
aa(lp4880
aI0
aI1
aI1
aI0
aS'alabama'
p4881
asI551
(lp4882
(lp4883
S'use'
p4884
aS'the'
p4885
aS'online'
p4886
aS'search'
p4887
aS'engines'
p4888
aS'regularly'
p4889
aS'the'
p4890
aS'new'
p4891
aS'year'
p4892
aS'come'
p4893
aS'icy'
p4894
aS'weather'
p4895
aS'even'
p4896
aS'regularly'
p4897
aa(lp4898
S'regularly'
p4899
aaI1
aI0
aI0
aI1
aS'california'
p4900
asI554
(lp4901
(lp4902
S'sunny'
p4903
aS'tomorrow'
p4904
aa(lp4905
aI0
aI0
aI0
aI0
aS'rhode island'
p4906
asI555
(lp4907
(lp4908
S'most'
p4909
aS'beautiful'
p4910
aS'sunny'
p4911
aS'spring'
p4912
aS'day'
p4913
aS'ever'
p4914
aS'thank'
p4915
aS'christiania'
p4916
aS'facebook'
p4917
aa(lp4918
S'facebook'
p4919
aaI1
aI0
aI0
aI0
aS'vermont'
p4920
asI557
(lp4921
(lp4922
S'outside'
p4923
aS'humidity'
p4924
aS'wind'
p4925
aS'mph'
p4926
aS'press'
p4927
aS'rain'
p4928
aa(lp4929
aI0
aI0
aI0
aI0
aS'new mexico'
p4930
asI558
(lp4931
(lp4932
S'severe'
p4933
aS'thunderstorm'
p4934
aS'warning'
p4935
aS'darke'
p4936
aS'miami'
p4937
aS'preble'
p4938
aS'shelby'
p4939
aS'county'
p4940
aS'oh'
p4941
aS'pm'
p4942
aS'edt'
p4943
aS'ohwx'
p4944
aa(lp4945
S'ohwx'
p4946
aaI1
aI1
aI1
aI0
aS'florida'
p4947
asI559
(lp4948
(lp4949
S'rainy'
p4950
aS'mondays'
p4951
aS'suckbizznsfirst'
p4952
aa(lp4953
aI0
aI0
aI0
aI0
aS'delaware'
p4954
asI560
(lp4955
(lp4956
S'for'
p4957
aS'latest'
p4958
aS'joplin'
p4959
aS'storm'
p4960
aS'go'
p4961
aa(lp4962
aI0
aI0
aI0
aI1
aS'north carolina'
p4963
asI561
(lp4964
(lp4965
S'weather'
p4966
aS'live'
p4967
aS'year'
p4968
aS'round'
p4969
aS'lol'
p4970
aa(lp4971
aI0
aI1
aI0
aI0
aS'illinois'
p4972
asI563
(lp4973
(lp4974
S'great'
p4975
aS'food'
p4976
aS'great'
p4977
aS'weather'
p4978
aS'mosaic'
p4979
aa(lp4980
aI0
aI0
aI0
aI1
aS'south carolina'
p4981
asI564
(lp4982
(lp4983
S'hazardous'
p4984
aS'weather'
p4985
aS'possible'
p4986
aS'afternoon'
p4987
aS'rush'
p4988
aS'hourplease'
p4989
aS'travel'
p4990
aS'extra'
p4991
aS'care'
p4992
aa(lp4993
aI0
aI1
aI1
aI0
aS'delaware'
p4994
asI565
(lp4995
(lp4996
S'im'
p4997
aS'thinkin'
p4998
aS'degrees'
p4999
aS'room'
p5000
aa(lp5001
aI0
aI0
aI0
aI0
aS'connecticut'
p5002
asI566
(lp5003
(lp5004
S'lovin'
p5005
aS'rain'
p5006
aS'hope'
p5007
aS'parents'
p5008
aS'power'
p5009
aS'comes'
p5010
aS'back'
p5011
aS'else'
p5012
aS'may'
p5013
aS'crash'
p5014
aS'tomorrow'
p5015
aS'lol'
p5016
aS'thunderstorms'
p5017
aa(lp5018
S'thunderstorms'
p5019
aaI1
aI0
aI0
aI0
aS'virginia'
p5020
asI567
(lp5021
(lp5022
S'always'
p5023
aS'sunny'
p5024
aa(lp5025
aI0
aI0
aI0
aI0
aS'nevada'
p5026
asI569
(lp5027
(lp5028
S'the'
p5029
aS'streets'
p5030
aS'glistened'
p5031
aS'fresh'
p5032
aS'snow'
p5033
aS'sky'
p5034
aS'blameless'
p5035
aS'blue'
p5036
aS'blameless'
p5037
aS'blue'
p5038
aS'idk'
p5039
aS'sounds'
p5040
aS'particularly'
p5041
aS'awesome'
p5042
aa(lp5043
aI0
aI0
aI0
aI0
aS'nevada'
p5044
asI571
(lp5045
(lp5046
S'the'
p5047
aS'weather'
p5048
aS'pretty'
p5049
aS'wicked'
p5050
aS'beginning'
p5051
aS'sun'
p5052
aS'finally'
p5053
aa(lp5054
aI0
aI1
aI0
aI0
aS'california'
p5055
asI572
(lp5056
(lp5057
S'idk'
p5058
aS'turned'
p5059
aS'air'
p5060
aS'knowin'
p5061
aS'get'
p5062
aS'hot'
p5063
aS'pass'
p5064
aS'idk'
p5065
aS'wtf'
p5066
aS'doin'
p5067
aS'man'
p5068
aS'tryna'
p5069
aS'disable'
p5070
aS'ass'
p5071
aS'shit'
p5072
aa(lp5073
aI0
aI0
aI0
aI0
aS'california'
p5074
asI573
(lp5075
(lp5076
S'er'
p5077
aS'we'
p5078
aS'picnic'
p5079
aS'schedule'
p5080
aS'mention'
p5081
aS'sunshine'
p5082
aS'lovers'
p5083
aS'please'
p5084
aS'bite'
p5085
aS'tongue'
p5086
aS'stop'
p5087
aS'yer'
p5088
aS'moaning'
p5089
aS'let'
p5090
aS'rain'
p5091
aa(lp5092
aI0
aI0
aI0
aI0
aS'vermont'
p5093
asI575
(lp5094
(lp5095
S'were'
p5096
aS'severe'
p5097
aS'thunderstorm'
p5098
aS'warning'
p5099
aS'iowa'
p5100
aS'bad'
p5101
aS'weather'
p5102
aS'every'
p5103
aa(lp5104
aI0
aI0
aI0
aI0
aS'wyoming'
p5105
asI576
(lp5106
(lp5107
S'room'
p5108
aS'made'
p5109
aS'ice'
p5110
aS'its'
p5111
aS'degrees'
p5112
aS'glasses'
p5113
aS'made'
p5114
aS'ice'
p5115
aa(lp5116
aI0
aI1
aI0
aI0
aS'florida'
p5117
asI578
(lp5118
(lp5119
S'feet'
p5120
aS'dashboard'
p5121
aS'sunshine'
p5122
aS'great'
p5123
aS'road'
p5124
aS'music'
p5125
aS'best'
p5126
aS'friend'
p5127
aS'drivin'
p5128
aS'what'
p5129
aS'could'
p5130
aS'better'
p5131
aa(lp5132
aI0
aI0
aI0
aI1
aS'indiana'
p5133
asI579
(lp5134
(lp5135
S'smh'
p5136
aS'hot'
p5137
aS'understatement'
p5138
aS'describe'
p5139
aS'weather'
p5140
aS'outside'
p5141
aS'and'
p5142
aS'got'
p5143
aS'leather'
p5144
aS'seats'
p5145
aS'car'
p5146
aS'tragic'
p5147
aa(lp5148
S'tragic'
p5149
aaI1
aI0
aI0
aI0
aS'texas'
p5150
asI580
(lp5151
(lp5152
S'it'
p5153
aS'much'
p5154
aS'hot'
p5155
aS'working'
p5156
aS'outside'
p5157
aS'today'
p5158
aS'someone'
p5159
aS'want'
p5160
aS'bring'
p5161
aS'snocone'
p5162
aa(lp5163
aI0
aI0
aI0
aI0
aS'texas'
p5164
asI582
(lp5165
(lp5166
S'scared'
p5167
aS'af'
p5168
aS'pray'
p5169
aS'storm'
p5170
aS'comes'
p5171
aS'end'
p5172
aS'real'
p5173
aS'soon'
p5174
aa(lp5175
aI0
aI0
aI0
aI0
aS'georgia'
p5176
asI583
(lp5177
(lp5178
S'ive'
p5179
aS'told'
p5180
aS'rainy'
p5181
aS'rainy'
p5182
aS'weve'
p5183
aS'pretty'
p5184
aS'lucky'
p5185
aS'last'
p5186
aS'days'
p5187
aa(lp5188
aI0
aI1
aI0
aI0
aS'vermont'
p5189
asI584
(lp5190
(lp5191
S'pittsburgh'
p5192
aS'amazing'
p5193
aS'brace'
p5194
aS'cold'
p5195
aS'maybe'
p5196
aS'sun'
p5197
aS'come'
p5198
aS'eventually'
p5199
aa(lp5200
aI0
aI1
aI0
aI0
aS'pennsylvania'
p5201
asI585
(lp5202
(lp5203
S'where'
p5204
aS'live'
p5205
aS'we'
p5206
aS'tornadoes'
p5207
aS'come'
p5208
aS'big'
p5209
aS'old'
p5210
aS'storm'
p5211
aS'heading'
p5212
aS'way'
p5213
aS'golf'
p5214
aS'ball'
p5215
aS'baseball'
p5216
aS'size'
p5217
aS'hail'
p5218
aa(lp5219
aI0
aI1
aI1
aI0
aS'oklahoma'
p5220
asI586
(lp5221
(lp5222
S'no'
p5223
aS'air'
p5224
aS'circulating'
p5225
aS'car'
p5226
aS'im'
p5227
aS'happy'
p5228
aS'freezing'
p5229
aS'im'
p5230
aS'probably'
p5231
aS'one'
p5232
aS'metronorth'
p5233
aa(lp5234
S'metronorth'
p5235
aaI1
aI1
aI0
aI0
aS'new york'
p5236
asI587
(lp5237
(lp5238
S'waiting'
p5239
aS'snow'
p5240
aS'melt'
p5241
aS'front'
p5242
aS'yard'
p5243
aS'mow'
p5244
aS'springincolorado'
p5245
aa(lp5246
S'springincolorado'
p5247
aaI1
aI1
aI1
aI0
aS'colorado'
p5248
asI591
(lp5249
(lp5250
S'day'
p5251
aS'sunshine'
p5252
aS'minutes'
p5253
aS'behind'
p5254
aa(lp5255
aI0
aI0
aI0
aI1
aS'california'
p5256
asI592
(lp5257
(lp5258
S'woah'
p5259
aS'that'
p5260
aS'lot'
p5261
aS'snow'
p5262
aS'why'
p5263
aS'dont'
p5264
aS'plant'
p5265
aS'anything'
p5266
aS'memorial'
p5267
aS'wknd'
p5268
aa(lp5269
aI0
aI1
aI1
aI1
aS'new mexico'
p5270
asI593
(lp5271
(lp5272
S'hey'
p5273
aS'vt'
p5274
aS'nice'
p5275
aS'read'
p5276
aS'first'
p5277
aS'thing'
p5278
aS'morning'
p5279
aS'the'
p5280
aS'weather'
p5281
aS'always'
p5282
aS'nice'
p5283
aS'inside'
p5284
aS'echo'
p5285
aa(lp5286
S'vt'
p5287
aS'weather'
p5288
aaI1
aI0
aI0
aI1
aS'vermont'
p5289
asI594
(lp5290
(lp5291
S'hoping'
p5292
aS'laughs'
p5293
aS'rainy'
p5294
aS'night'
p5295
aS'bridesmaids'
p5296
aa(lp5297
S'bridesmaids'
p5298
aaI1
aI1
aI0
aI1
aS'arkansas'
p5299
asI595
(lp5300
(lp5301
S'so'
p5302
aS'get'
p5303
aS'emulsion'
p5304
aS'dry'
p5305
aS'humidity'
p5306
aS'too'
p5307
aS'bad'
p5308
aS'humidity'
p5309
aS'always'
p5310
aS'like'
p5311
aS'how'
p5312
aS'dehumidify'
p5313
aS'open'
p5314
aS'air'
p5315
aS'room'
p5316
aa(lp5317
aI0
aI0
aI0
aI0
aS'montana'
p5318
asI597
(lp5319
(lp5320
S'still'
p5321
aS'freezing'
p5322
aS'im'
p5323
aS'way'
p5324
aS'bundled'
p5325
aS'socal'
p5326
aa(lp5327
aI0
aI0
aI0
aI0
aS'new hampshire'
p5328
asI598
(lp5329
(lp5330
S'rt'
p5331
aS'rt'
p5332
aS'telethon'
p5333
aS'raises'
p5334
aS'help'
p5335
aS'alabama'
p5336
aS'storm'
p5337
aS'victims'
p5338
aa(lp5339
aI0
aI1
aI1
aI1
aS'florida'
p5340
asI599
(lp5341
(lp5342
S'pool'
p5343
aS'closed'
p5344
aS'summer'
p5345
aS'and'
p5346
aS'legendary'
p5347
aS'actress'
p5348
aS'born'
p5349
aS'today'
p5350
aS'expected'
p5351
aS'partly'
p5352
aS'sunny'
p5353
aS'high'
p5354
aa(lp5355
aI0
aI0
aI0
aI1
aS'rhode island'
p5356
asI600
(lp5357
(lp5358
S'weve'
p5359
aS'enough'
p5360
aS'rain'
p5361
aS'month'
p5362
aS'mother'
p5363
aS'nature'
p5364
aS'best'
p5365
aS'bring'
p5366
aS'sunshine'
p5367
aS'coming'
p5368
aS'weekend'
p5369
aS'have'
p5370
aS'awesome'
p5371
aS'week'
p5372
aa(lp5373
aI0
aI1
aI0
aI0
aS'virginia'
p5374
asI601
(lp5375
(lp5376
S'the'
p5377
aS'next'
p5378
aS'wave'
p5379
aS'crazy'
p5380
aS'weather'
p5381
aS'starting'
p5382
aS'house'
p5383
aa(lp5384
aI0
aI0
aI0
aI0
aS'texas'
p5385
asI602
(lp5386
(lp5387
S'oklahoma'
p5388
aS'weather'
p5389
aS'significant'
p5390
aS'weather'
p5391
aS'advisory'
p5392
aS'the'
p5393
aS'national'
p5394
aS'weather'
p5395
aS'service'
p5396
aS'in'
p5397
aS'tulsa'
p5398
aS'has'
p5399
aS'issued'
p5400
aS'signific'
p5401
aa(lp5402
aI0
aI0
aI0
aI1
aS'oklahoma'
p5403
asI605
(lp5404
(lp5405
S'nice'
p5406
aS'weather'
p5407
aS'need'
p5408
aS'heat'
p5409
aS'sun'
p5410
aS'asap'
p5411
aa(lp5412
aI0
aI0
aI0
aI0
aS'illinois'
p5413
asI607
(lp5414
(lp5415
S'the'
p5416
aS'thunder'
p5417
aS'storm'
p5418
aS'last'
p5419
aS'night'
p5420
aS'woke'
p5421
aS'everyone'
p5422
aS'it'
p5423
aS'nice'
p5424
aS'listen'
p5425
aS'rain'
p5426
aS'falling'
p5427
aS'back'
p5428
aS'sleep'
p5429
aa(lp5430
aI0
aI0
aI0
aI0
aS'south carolina'
p5431
asI609
(lp5432
(lp5433
S'rt'
p5434
aS'van'
p5435
aS'wie'
p5436
aS'wil'
p5437
aS'je'
p5438
aS'nu'
p5439
aS'gezelschap'
p5440
aS'linkjefollower'
p5441
aS'sunshine'
p5442
aS'niet'
p5443
aS'eens'
p5444
aS'van'
p5445
aa(lp5446
S'linkjefollower'
p5447
aaI1
aI1
aI1
aI1
aS'california'
p5448
asI610
(lp5449
(lp5450
S'its'
p5451
aS'hot'
p5452
aS'outsideac'
p5453
aS'blast'
p5454
aa(lp5455
aI0
aI0
aI0
aI0
aS'arkansas'
p5456
asI612
(lp5457
(lp5458
S'yuck'
p5459
aS'weather'
p5460
aS'great'
p5461
aS'project'
p5462
aa(lp5463
aI0
aI1
aI0
aI0
aS'north carolina'
p5464
asI613
(lp5465
(lp5466
S'storm'
p5467
aS'destroyed'
p5468
aS'nite'
p5469
aS'homes'
p5470
aS'injuries'
p5471
aS'reporteddover'
p5472
aS'tennstewart'
p5473
aS'co'
p5474
aS'ema'
p5475
aS'confirmsfire'
p5476
aS'stationpost'
p5477
aS'office'
p5478
aS'also'
p5479
aS'destroyed'
p5480
aa(lp5481
aI0
aI0
aI0
aI0
aS'tennessee'
p5482
asI614
(lp5483
(lp5484
S'its'
p5485
aS'degrees'
p5486
aS'georgia'
p5487
aS'im'
p5488
aS'tootsie'
p5489
aS'roll'
p5490
aa(lp5491
aI0
aI0
aI0
aI0
aS'georgia'
p5492
asI618
(lp5493
(lp5494
S'thunderstormi'
p5495
aS'really'
p5496
aS'dont'
p5497
aS'like'
p5498
aS'im'
p5499
aS'alone'
p5500
aS'please'
p5501
aS'go'
p5502
aS'away'
p5503
aa(lp5504
aI0
aI0
aI0
aI0
aS'iowa'
p5505
asI619
(lp5506
(lp5507
S'laughing'
p5508
aS'everyone'
p5509
aS'wales'
p5510
aS'stuck'
p5511
aS'rain'
p5512
aS'blazing'
p5513
aS'sunshine'
p5514
aa(lp5515
aI0
aI0
aI0
aI0
aS'kentucky'
p5516
asI622
(lp5517
(lp5518
S'my'
p5519
aS'damn'
p5520
aS'nipples'
p5521
aS'hard'
p5522
aS'its'
p5523
aS'cold'
p5524
aS'herelmfao'
p5525
aS'sayin'
p5526
aS'thing'
p5527
aS'always'
p5528
aS'thinks'
p5529
aS'cold'
p5530
aa(lp5531
aI0
aI1
aI1
aI0
aS'north carolina'
p5532
asI623
(lp5533
(lp5534
S'rain'
p5535
aS'provides'
p5536
aS'ideal'
p5537
aS'conditions'
p5538
aS'swift'
p5539
aS'water'
p5540
aS'rescue'
p5541
aS'training'
p5542
aS'the'
p5543
aS'rainy'
p5544
aS'weather'
p5545
aS'provided'
p5546
aS'perfect'
p5547
aa(lp5548
aI0
aI1
aI1
aI1
aS'new mexico'
p5549
asI625
(lp5550
(lp5551
S'go'
p5552
aS'stripclub'
p5553
aS'always'
p5554
aS'beautiful'
p5555
aS'day'
p5556
aS'rain'
p5557
aS'sleet'
p5558
aS'snow'
p5559
aa(lp5560
aI0
aI1
aI0
aI0
aS'texas'
p5561
asI627
(lp5562
(lp5563
S'rained'
p5564
aS'walk'
p5565
aS'courthouse'
p5566
aS'thought'
p5567
aS'supposed'
p5568
aS'desert'
p5569
aS'climate'
p5570
aS'tons'
p5571
aS'rain'
p5572
aS'last'
p5573
aS'wks'
p5574
aS'no'
p5575
aS'thunderstorms'
p5576
aS'yet'
p5577
aa(lp5578
aI0
aI0
aI0
aI0
aS'idaho'
p5579
asI628
(lp5580
(lp5581
S'mention'
p5582
aS'todays'
p5583
aS'humidity'
p5584
aS'annoying'
p5585
aa(lp5586
aI0
aI0
aI0
aI0
aS'new york'
p5587
asI630
(lp5588
(lp5589
S'good'
p5590
aS'morningi'
p5591
aS'hate'
p5592
aS'getting'
p5593
aS'early'
p5594
aS'but'
p5595
aS'love'
p5596
aS'getting'
p5597
aS'work'
p5598
aS'doneit'
p5599
aS'beautiful'
p5600
aS'sunny'
p5601
aS'degrees'
p5602
aS'perfect'
p5603
aa(lp5604
aI0
aI0
aI0
aI0
aS'pennsylvania'
p5605
asI631
(lp5606
(lp5607
S'hate'
p5608
aS'weather'
p5609
aS'passion'
p5610
aa(lp5611
aI0
aI0
aI0
aI0
aS'south carolina'
p5612
asI632
(lp5613
(lp5614
S'the'
p5615
aS'national'
p5616
aS'weather'
p5617
aS'service'
p5618
aS'changed'
p5619
aS'time'
p5620
aS'flash'
p5621
aS'flood'
p5622
aS'watch'
p5623
aS'des'
p5624
aS'moines'
p5625
aS'henry'
p5626
aS'jefferson'
p5627
aS'lee'
p5628
aS'van'
p5629
aa(lp5630
aI0
aI0
aI0
aI1
aS'vermont'
p5631
asI633
(lp5632
(lp5633
S'its'
p5634
aS'degrees'
p5635
aS'cant'
p5636
aS'turn'
p5637
aS'ac'
p5638
aS'thats'
p5639
aS'problem'
p5640
aS'its'
p5641
aS'ok'
p5642
aS'july'
p5643
aS'th'
p5644
aS'im'
p5645
aS'gon'
p5646
aS'ac'
p5647
aS'turn'
p5648
aS'imonone'
p5649
aa(lp5650
S'imonone'
p5651
aaI1
aI0
aI0
aI0
aS'south carolina'
p5652
asI635
(lp5653
(lp5654
S'goodmorning'
p5655
aS'everyone'
p5656
aS'at'
p5657
aS'sunshine'
p5658
aS'go'
p5659
aa(lp5660
aI0
aI0
aI0
aI0
aS'ohio'
p5661
asI636
(lp5662
(lp5663
S'severe'
p5664
aS'thunderstorm'
p5665
aS'warning'
p5666
aS'lamar'
p5667
aS'county'
p5668
aS'al'
p5669
aS'pm'
p5670
aa(lp5671
aI0
aI1
aI1
aI0
aS'alabama'
p5672
asI638
(lp5673
(lp5674
S'freezing'
p5675
aS'assssss'
p5676
aS'mickey'
p5677
aa(lp5678
aI0
aI0
aI0
aI0
aS'rhode island'
p5679
asI640
(lp5680
(lp5681
S'keep'
p5682
aS'finding'
p5683
aS'pieces'
p5684
aS'nature'
p5685
aS'big'
p5686
aS'hair'
p5687
aS'dang'
p5688
aS'humidityand'
p5689
aS'wind'
p5690
aa(lp5691
aI0
aI0
aI0
aI0
aS'district of columbia'
p5692
asI642
(lp5693
(lp5694
S'this'
p5695
aS'good'
p5696
aS'weather'
p5697
aS'needs'
p5698
aS'get'
p5699
aS'already'
p5700
aa(lp5701
aI0
aI0
aI0
aI0
aS'massachusetts'
p5702
asI645
(lp5703
(lp5704
S'yummy'
p5705
aS'sunny'
p5706
aS'brunchin'
p5707
aS'franny'
p5708
aS'mission'
p5709
aS'beach'
p5710
aS'cafe'
p5711
aS'others'
p5712
aa(lp5713
aI0
aI1
aI0
aI1
aS'california'
p5714
asI646
(lp5715
(lp5716
S'new'
p5717
aS'rwt'
p5718
aS'noaa'
p5719
aS'weather'
p5720
aS'radio'
p5721
aa(lp5722
aI0
aI0
aI0
aI1
aS'delaware'
p5723
asI648
(lp5724
(lp5725
S'with'
p5726
aS'rainy'
p5727
aS'weather'
p5728
aS'lately'
p5729
aS'blue'
p5730
aS'mood'
p5731
aS'tried'
p5732
aS'hand'
p5733
aS'writing'
p5734
aS'blues'
p5735
aS'song'
p5736
aS'so'
p5737
aS'hard'
p5738
aS'live'
p5739
aS'deals'
p5740
aa(lp5741
aI0
aI0
aI0
aI0
aS'utah'
p5742
asI649
(lp5743
(lp5744
S'thu'
p5745
aS'cloudy'
p5746
aS'periods'
p5747
aS'percent'
p5748
aS'chance'
p5749
aS'showers'
p5750
aS'risk'
p5751
aS'thunderstorm'
p5752
aS'early'
p5753
aS'evening'
p5754
aS'low'
p5755
aa(lp5756
aI0
aI0
aI0
aI0
aS'virginia'
p5757
asI650
(lp5758
(lp5759
S'urgh'
p5760
aS'mornin'
p5761
aS'it'
p5762
aS'illegal'
p5763
aS'make'
p5764
aS'us'
p5765
aS'get'
p5766
aS'early'
p5767
aS'rainy'
p5768
aS'days'
p5769
aS'ihateschool'
p5770
aa(lp5771
S'ihateschool'
p5772
aaI1
aI0
aI0
aI0
aS'connecticut'
p5773
asI651
(lp5774
(lp5775
S'boys'
p5776
aS'club'
p5777
aS'our'
p5778
aS'mama'
p5779
aS'papa'
p5780
aS'braved'
p5781
aS'dreary'
p5782
aS'weather'
p5783
aS'came'
p5784
aS'play'
p5785
aS'place'
p5786
aS'thursday'
p5787
aS'night'
p5788
aa(lp5789
aI0
aI0
aI0
aI1
aS'massachusetts'
p5790
asI652
(lp5791
(lp5792
S'its'
p5793
aS'hot'
p5794
aS'outside'
p5795
aS'inside'
p5796
aS'fridge'
p5797
aS'beer'
p5798
aS'good'
p5799
aS'thing'
p5800
aS'fridge'
p5801
aa(lp5802
aI0
aI0
aI0
aI0
aS'arizona'
p5803
asI653
(lp5804
(lp5805
S'weather'
p5806
aS'really'
p5807
aS'cooperating'
p5808
aS'thanks'
p5809
aS'advance'
p5810
aS'fans'
p5811
aS'come'
p5812
aS'tonight'
p5813
aa(lp5814
aI0
aI1
aI1
aI0
aS'massachusetts'
p5815
asI654
(lp5816
(lp5817
S'weather'
p5818
aS'itinerary'
p5819
aS'next'
p5820
aS'daysthough'
p5821
aS'utah'
p5822
aS'stay'
p5823
aS'rest'
p5824
aS'parents'
p5825
aS'trip'
p5826
aS'back'
p5827
aa(lp5828
aI0
aI0
aI0
aI1
aS'pennsylvania'
p5829
asI657
(lp5830
(lp5831
S'look'
p5832
aS'snow'
p5833
aS'bunnies'
p5834
aS'chea'
p5835
aa(lp5836
aI0
aI0
aI0
aI0
aS'oklahoma'
p5837
asI658
(lp5838
(lp5839
S'wet'
p5840
aS'weather'
p5841
aS'winchester'
p5842
aS'va'
p5843
aS'speedway'
p5844
aS'forced'
p5845
aS'postponement'
p5846
aS'tonts'
p5847
aS'woo'
p5848
aS'lms'
p5849
aS'eventrescheduled'
p5850
aS'sat'
p5851
aS'june'
p5852
aa(lp5853
aI0
aI0
aI0
aI0
aS'new hampshire'
p5854
asI659
(lp5855
(lp5856
S'yeah'
p5857
aS'sooo'
p5858
aS'weather'
p5859
aS'nice'
p5860
aS'today'
p5861
aa(lp5862
aI0
aI0
aI0
aI0
aS'mississippi'
p5863
asI660
(lp5864
(lp5865
S'ppl'
p5866
aS'looked'
p5867
aS'crazy'
p5868
aS'omw'
p5869
aS'work'
p5870
aS'probably'
p5871
aS'cuz'
p5872
aS'wore'
p5873
aS'leather'
p5874
aS'jacket'
p5875
aS'really'
p5876
aS'need'
p5877
aS'use'
p5878
aS'weather'
p5879
aS'app'
p5880
aS'phone'
p5881
aS'degrees'
p5882
aS'day'
p5883
aa(lp5884
aI0
aI0
aI0
aI0
aS'illinois'
p5885
asI661
(lp5886
(lp5887
S'the'
p5888
aS'beach'
p5889
aS'fun'
p5890
aS'really'
p5891
aS'sunny'
p5892
aS'hot'
p5893
aS'hell'
p5894
aS'now'
p5895
aS'im'
p5896
aS'back'
p5897
aS'hotel'
p5898
aS'raining'
p5899
aS'canyousaybipolar'
p5900
aa(lp5901
S'canyousaybipolar'
p5902
aaI1
aI0
aI0
aI0
aS'florida'
p5903
asI662
(lp5904
(lp5905
S'awkward'
p5906
aS'whistling'
p5907
aS'soooooo'
p5908
aS'the'
p5909
aS'weather'
p5910
aS'cleared'
p5911
aa(lp5912
aI0
aI1
aI0
aI0
aS'florida'
p5913
asI663
(lp5914
(lp5915
S'dang'
p5916
aS'windy'
p5917
aS'wonder'
p5918
aS'high'
p5919
aS'ill'
p5920
aS'get'
p5921
aS'att'
p5922
aS'reception'
p5923
aS'it'
p5924
aS'always'
p5925
aS'sucked'
p5926
aS'begin'
p5927
aS'rapture'
p5928
aa(lp5929
S'rapture'
p5930
aaI1
aI0
aI0
aI0
aS'california'
p5931
asI665
(lp5932
(lp5933
S'sunshine'
p5934
aS'smells'
p5935
aS'like'
p5936
aS'clean'
p5937
aS'concrete'
p5938
aS'upturned'
p5939
aS'soil'
p5940
aS'trimmed'
p5941
aS'grass'
p5942
aS'household'
p5943
aS'cleaner'
p5944
aa(lp5945
aI0
aI1
aI0
aI0
aS'idaho'
p5946
asI666
(lp5947
(lp5948
S'yeah'
p5949
aS'remember'
p5950
aS'humidity'
p5951
aS'got'
p5952
aS'thought'
p5953
aS'like'
p5954
aS'walking'
p5955
aS'stew'
p5956
aS'but'
p5957
aS'still'
p5958
aa(lp5959
aI0
aI1
aI0
aI0
aS'nevada'
p5960
asI670
(lp5961
(lp5962
S'weather'
p5963
aS'like'
p5964
aS'could'
p5965
aS'really'
p5966
aS'go'
p5967
aS'mojito'
p5968
aS'margarita'
p5969
aS'right'
p5970
aS'hell'
p5971
aS'id'
p5972
aS'take'
p5973
aS'umbrella'
p5974
aS'drink'
p5975
aa(lp5976
aI0
aI0
aI0
aI0
aS'rhode island'
p5977
asI671
(lp5978
(lp5979
S'hot'
p5980
aS'hell'
p5981
aa(lp5982
aI0
aI0
aI0
aI0
aS'georgia'
p5983
asI674
(lp5984
(lp5985
S'severe'
p5986
aS'weather'
p5987
aS'alert'
p5988
aS'sun'
p5989
aS'emergency'
p5990
aS'declared'
p5991
aS'twin'
p5992
aS'cities'
p5993
aS'leave'
p5994
aS'home'
p5995
aS'office'
p5996
aS'immediately'
p5997
aS'seek'
p5998
aS'shelter'
p5999
aa(lp6000
aI0
aI1
aI1
aI0
aS'minnesota'
p6001
asI675
(lp6002
(lp6003
S'its'
p6004
aS'still'
p6005
aS'degrees'
p6006
aS'jesustakethewheel'
p6007
aa(lp6008
S'jesustakethewheel'
p6009
aaI1
aI0
aI0
aI0
aS'nevada'
p6010
asI677
(lp6011
(lp6012
S'tired'
p6013
aS'walking'
p6014
aS'outside'
p6015
aS'cold'
p6016
aa(lp6017
aI0
aI0
aI0
aI0
aS'california'
p6018
asI679
(lp6019
(lp6020
S'love'
p6021
aS'thunderstorms'
p6022
aa(lp6023
aI0
aI0
aI0
aI0
aS'new york'
p6024
asI680
(lp6025
(lp6026
S'it'
p6027
aS'sure'
p6028
aS'cloudy'
p6029
aS'windy'
p6030
aS'dusty'
p6031
aS'outside'
p6032
aS'amme'
p6033
aa(lp6034
aI0
aI0
aI0
aI0
aS'mississippi'
p6035
asI681
(lp6036
(lp6037
S'nice'
p6038
aS'thunder'
p6039
aS'storm'
p6040
aS'sounds'
p6041
aS'good'
p6042
aS'txt'
p6043
aa(lp6044
aI0
aI0
aI0
aI0
aS'wisconsin'
p6045
asI685
(lp6046
(lp6047
S'this'
p6048
aS'weather'
p6049
aS'makes'
p6050
aS'perfect'
p6051
aS'reading'
p6052
aS'conditions'
p6053
aS'finishing'
p6054
aS'city'
p6055
aS'ashes'
p6056
aS'today'
p6057
aa(lp6058
aI0
aI0
aI0
aI0
aS'illinois'
p6059
asI686
(lp6060
(lp6061
S'knew'
p6062
aS'wasnt'
p6063
aS'crazy'
p6064
aS'barely'
p6065
aS'hit'
p6066
aS'degrees'
p6067
aS'today'
p6068
aa(lp6069
aI0
aI0
aI0
aI1
aS'wisconsin'
p6070
asI687
(lp6071
(lp6072
S'its'
p6073
aS'beautiful'
p6074
aS'day'
p6075
aS'outside'
p6076
aS'enjoy'
p6077
aS'lovely'
p6078
aS'weather'
p6079
aS'public'
p6080
aS'art'
p6081
aS'walking'
p6082
aS'tour'
p6083
aS'center'
p6084
aS'city'
p6085
aa(lp6086
aI0
aI1
aI1
aI1
aS'north carolina'
p6087
asI689
(lp6088
(lp6089
S'storm'
p6090
aS'supplies'
p6091
aS'low'
p6092
aS'bradley'
p6093
aS'county'
p6094
aS'the'
p6095
aS'lack'
p6096
aS'supplies'
p6097
aS'could'
p6098
aS'dire'
p6099
aS'effects'
p6100
aS'storm'
p6101
aS'victims'
p6102
aS'needing'
p6103
aS'help'
p6104
aa(lp6105
aI0
aI1
aI1
aI1
aS'tennessee'
p6106
asI690
(lp6107
(lp6108
S'event'
p6109
aS'cancelled'
p6110
aS'severe'
p6111
aS'thunderstorm'
p6112
aS'warning'
p6113
aS'pm'
p6114
aS'pm'
p6115
aS'cdt'
p6116
aS'denton'
p6117
aS'read'
p6118
aa(lp6119
aI0
aI0
aI0
aI1
aS'texas'
p6120
asI691
(lp6121
(lp6122
S'what'
p6123
aS'absolutely'
p6124
aS'gorgeous'
p6125
aS'warm'
p6126
aS'sunny'
p6127
aS'day'
p6128
aS'peachland'
p6129
aS'moods'
p6130
aS'changed'
p6131
aS'place'
p6132
aS'really'
p6133
aS'solar'
p6134
aS'powered'
p6135
aa(lp6136
S'peachland'
p6137
aaI1
aI0
aI0
aI0
aS'north carolina'
p6138
asI692
(lp6139
(lp6140
S'hey'
p6141
aS'case'
p6142
aS'didnt'
p6143
aS'noticeyesterday'
p6144
aS'sunny'
p6145
aS'pdxtoday'
p6146
aS'raining'
p6147
aS'fb'
p6148
aS'gofigure'
p6149
aS'portlandia'
p6150
aa(lp6151
S'fb'
p6152
aS'gofigure'
p6153
aS'portlandia'
p6154
aaI1
aI0
aI0
aI0
aS'oregon'
p6155
asI694
(lp6156
(lp6157
S'hail'
p6158
aS'storm'
p6159
aS'jajaja'
p6160
aa(lp6161
aI0
aI0
aI0
aI0
aS'georgia'
p6162
asI696
(lp6163
(lp6164
S'kno'
p6165
aS'dats'
p6166
aS'rite'
p6167
aS'hot'
p6168
aS'mained'
p6169
aS'tryna'
p6170
aS'cuddle'
p6171
aS'cake'
p6172
aS'degree'
p6173
aS'weather'
p6174
aS'justsaying'
p6175
aa(lp6176
S'justsaying'
p6177
aaI1
aI1
aI1
aI0
aS'ohio'
p6178
asI698
(lp6179
(lp6180
S'my'
p6181
aS'dad'
p6182
aS'asked'
p6183
aS'cats'
p6184
aS'acting'
p6185
aS'strange'
p6186
aS'is'
p6187
aS'concerned'
p6188
aS'weather'
p6189
aa(lp6190
aI0
aI0
aI0
aI0
aS'ohio'
p6191
asI699
(lp6192
(lp6193
S'weather'
p6194
aS'like'
p6195
aS'detroit'
p6196
aa(lp6197
aI0
aI1
aI0
aI0
aS'indiana'
p6198
asI700
(lp6199
(lp6200
S'this'
p6201
aS'type'
p6202
aS'tricky'
p6203
aS'weatherbundle'
p6204
aa(lp6205
aI0
aI0
aI0
aI0
aS'ohio'
p6206
asI702
(lp6207
(lp6208
S'chance'
p6209
aS'kickoff'
p6210
aS'time'
p6211
aS'cant'
p6212
aS'imagine'
p6213
aS'perfect'
p6214
aS'weather'
p6215
aS'national'
p6216
aS'spotlight'
p6217
aS'cascadia'
p6218
aS'tonight'
p6219
aa(lp6220
aI0
aI0
aI0
aI0
aS'washington'
p6221
asI703
(lp6222
(lp6223
S'hookah'
p6224
aS'kanye'
p6225
aS'playlist'
p6226
aS'nice'
p6227
aS'weather'
p6228
aS'chill'
p6229
aS'afternoon'
p6230
aa(lp6231
aI0
aI0
aI0
aI0
aS'arkansas'
p6232
asI704
(lp6233
(lp6234
S'its'
p6235
aS'freezing'
p6236
aS'absolutely'
p6237
aS'reason'
p6238
aa(lp6239
aI0
aI0
aI0
aI0
aS'wisconsin'
p6240
asI708
(lp6241
(lp6242
S'wheres'
p6243
aS'sunshine'
p6244
aS'think'
p6245
aS'texas'
p6246
aS'calling'
p6247
aS'name'
p6248
aS'time'
p6249
aS'move'
p6250
aS'back'
p6251
aS'home'
p6252
aa(lp6253
aI0
aI0
aI0
aI0
aS'michigan'
p6254
asI712
(lp6255
(lp6256
S'got'
p6257
aS'rainy'
p6258
aS'day'
p6259
aS'blues'
p6260
aS'cheer'
p6261
aS'retail'
p6262
aS'therapy'
p6263
aS'treat'
p6264
aS'relaxing'
p6265
aS'facialyou'
p6266
aS'deserve'
p6267
aa(lp6268
aI0
aI0
aI0
aI0
aS'montana'
p6269
asI714
(lp6270
(lp6271
S'enjoy'
p6272
aS'day'
p6273
aS'hope'
p6274
aS'good'
p6275
aS'weather'
p6276
aa(lp6277
aI0
aI1
aI0
aI0
aS'rhode island'
p6278
asI715
(lp6279
(lp6280
S'its'
p6281
aS'windy'
p6282
aa(lp6283
aI0
aI0
aI0
aI0
aS'new mexico'
p6284
asI716
(lp6285
(lp6286
S'really'
p6287
aS'drive'
p6288
aS'storm'
p6289
aS'another'
p6290
aS'great'
p6291
aS'event'
p6292
aS'already'
p6293
aS'amazing'
p6294
aS'day'
p6295
aa(lp6296
aI0
aI0
aI0
aI0
aS'new jersey'
p6297
asI717
(lp6298
(lp6299
S'syracuse'
p6300
aS'big'
p6301
aS'east'
p6302
aS'weather'
p6303
aS'good'
p6304
aS'its'
p6305
aS'soo'
p6306
aS'nice'
p6307
aS'why'
p6308
aS'ct'
p6309
aS'wait'
p6310
aS'till'
p6311
aS'leave'
p6312
aS'get'
p6313
aS'warm'
p6314
aa(lp6315
aI0
aI1
aI1
aI0
aS'south carolina'
p6316
asI721
(lp6317
(lp6318
S'bikini'
p6319
aS'weather'
p6320
aS'pictures'
p6321
aS'new'
p6322
aS'picture'
p6323
aS'bikini'
p6324
aS'babes'
p6325
aa(lp6326
S'bikini'
p6327
aS'babes'
p6328
aaI1
aI0
aI0
aI1
aS'florida'
p6329
asI723
(lp6330
(lp6331
S'todays'
p6332
aS'forecast'
p6333
aS'extremely'
p6334
aS'windy'
p6335
aS'strong'
p6336
aS'winds'
p6337
aS'the'
p6338
aS'rain'
p6339
aS'clear'
p6340
aS'early'
p6341
aS'tomorrow'
p6342
aS'morning'
p6343
aS'occasional'
p6344
aS'showers'
p6345
aa(lp6346
aI0
aI1
aI0
aI0
aS'north dakota'
p6347
asI724
(lp6348
(lp6349
S'weather'
p6350
aS'pm'
p6351
aS'feels'
p6352
aS'humidity'
p6353
aS'mph'
p6354
aS'south'
p6355
aS'wind'
p6356
aa(lp6357
S'weather'
p6358
aaI1
aI0
aI0
aI0
aS'texas'
p6359
asI725
(lp6360
(lp6361
S'weather'
p6362
aS'pm'
p6363
aS'feels'
p6364
aS'humidity'
p6365
aS'mph'
p6366
aS'southeast'
p6367
aS'wind'
p6368
aa(lp6369
S'weather'
p6370
aaI1
aI0
aI0
aI0
aS'texas'
p6371
asI726
(lp6372
(lp6373
S'hell'
p6374
aS'yea'
p6375
aS'arkansas'
p6376
aS'weather'
p6377
aS'sucks'
p6378
aa(lp6379
aI0
aI1
aI0
aI0
aS'north carolina'
p6380
asI727
(lp6381
(lp6382
S'its'
p6383
aS'hot'
p6384
aS'outside'
p6385
aa(lp6386
aI0
aI1
aI1
aI0
aS'florida'
p6387
asI729
(lp6388
(lp6389
S'dude'
p6390
aS'ren'
p6391
aS'fest'
p6392
aS'best'
p6393
aS'place'
p6394
aS'think'
p6395
aS'michigan'
p6396
aS'best'
p6397
aS'weather'
p6398
aS'always'
p6399
aS'changi'
p6400
aa(lp6401
aI0
aI1
aI1
aI0
aS'maryland'
p6402
asI730
(lp6403
(lp6404
S'stay'
p6405
aS'safe'
p6406
aS'riding'
p6407
aS'storm'
p6408
aS'neighbors'
p6409
aS'basement'
p6410
aS'will'
p6411
aS'stay'
p6412
aa(lp6413
aI0
aI1
aI1
aI0
aS'connecticut'
p6414
asI731
(lp6415
(lp6416
S'loooove'
p6417
aS'weather'
p6418
aS'better'
p6419
aS'stay'
p6420
aS'like'
p6421
aS'wholee'
p6422
aS'week'
p6423
aa(lp6424
aI0
aI0
aI0
aI0
aS'ohio'
p6425
asI732
(lp6426
(lp6427
S'thats'
p6428
aS'cue'
p6429
aS'thunder'
p6430
aS'distance'
p6431
aS'the'
p6432
aS'day'
p6433
aS'suddenly'
p6434
aS'become'
p6435
aS'dark'
p6436
aS'twilight'
p6437
aS'ill'
p6438
aS'back'
p6439
aS'storm'
p6440
aS'passes'
p6441
aa(lp6442
aI0
aI0
aI0
aI0
aS'new hampshire'
p6443
asI733
(lp6444
(lp6445
S'if'
p6446
aS'make'
p6447
aS'cup'
p6448
aS'hot'
p6449
aS'chocolate'
p6450
aS'go'
p6451
aS'pool'
p6452
aS'could'
p6453
aS'get'
p6454
aS'good'
p6455
aS'sunrise'
p6456
aS'pics'
p6457
aa(lp6458
aI0
aI0
aI0
aI0
aS'south carolina'
p6459
asI735
(lp6460
(lp6461
S'good'
p6462
aS'morning'
p6463
aS'sunshine'
p6464
aa(lp6465
aI0
aI0
aI0
aI0
aS'kansas'
p6466
asI736
(lp6467
(lp6468
S'cold'
p6469
aS'fck'
p6470
aa(lp6471
aI0
aI1
aI0
aI0
aS'new york'
p6472
asI737
(lp6473
(lp6474
S'me'
p6475
aS'love'
p6476
aS'thunder'
p6477
aS'storms'
p6478
aa(lp6479
aI0
aI1
aI0
aI0
aS'south carolina'
p6480
asI738
(lp6481
(lp6482
S'if'
p6483
aS'weezy'
p6484
aS'make'
p6485
aS'rain'
p6486
aS'make'
p6487
aS'snow'
p6488
aa(lp6489
aI0
aI0
aI0
aI0
aS'california'
p6490
asa(dp6491
I1
(lp6492
S'0'
aS'0'
aS'0'
aS'0'
aS'0'
aS'0'
aS'0'
aS'0'
aS'0'
aS'1'
aS'0'
aS'0'
aS'0'
aS'0'
aS'0'
asI2
(lp6493
S'0'
aS'0'
aS'0'
aS'0'
aS'0'
aS'0'
aS'0'
aS'0'
aS'0'
aS'1'
aS'0'
aS'0'
aS'0'
aS'0'
aS'0'
asI3
(lp6494
S'0'
aS'0'
aS'0'
aS'0'
aS'0'
aS'0'
aS'1'
aS'0'
aS'0'
aS'0'
aS'0'
aS'0'
aS'0'
aS'0'
aS'0'
asI6
(lp6495
S'0'
aS'0'
aS'0'
aS'0'
aS'0'
aS'0'
aS'0.604'
p6496
aS'0'
aS'0.196'
p6497
aS'0'
aS'0'
aS'0'
aS'0.201'
p6498
aS'0'
aS'0'
asI9
(lp6499
S'0'
aS'0'
aS'0'
aS'0'
aS'0'
aS'0'
aS'0'
aS'0'
aS'0'
aS'0'
aS'0'
aS'0'
aS'1'
aS'0'
aS'0'
asI10
(lp6500
S'0'
aS'0'
aS'0'
aS'0'
aS'0'
aS'0'
aS'0'
aS'0'
aS'0'
aS'0'
aS'0'
aS'1'
aS'0'
aS'0'
aS'0'
asI11
(lp6501
S'0'
aS'0.203'
p6502
aS'0.176'
p6503
aS'0'
aS'0.376'
p6504
aS'0'
aS'0.421'
p6505
aS'0'
aS'0.176'
p6506
aS'0'
aS'0'
aS'0'
aS'0'
aS'0'
aS'0.579'
p6507
asI13
(lp6508
S'0'
aS'0'
aS'0'
aS'1'
aS'0'
aS'0'
aS'0'
aS'0'
aS'0'
aS'0'
aS'0'
aS'0'
aS'0'
aS'0'
aS'0'
asI14
(lp6509
S'0'
aS'0'
aS'0'
aS'0.194'
p6510
aS'0'
aS'0'
aS'0.605'
p6511
aS'0'
aS'0.2'
p6512
aS'0'
aS'0'
aS'0'
aS'0'
aS'0'
aS'0'
asI15
(lp6513
S'0'
aS'0'
aS'0'
aS'0'
aS'0'
aS'0'
aS'0'
aS'0'
aS'0'
aS'0'
aS'1'
aS'0'
aS'0'
aS'0'
aS'0'
asI16
(lp6514
S'0'
aS'0'
aS'0'
aS'0.414'
p6515
aS'0'
aS'0'
aS'0'
aS'0'
aS'0.207'
p6516
aS'0'
aS'0'
aS'0'
aS'1'
aS'0'
aS'0'
asI17
(lp6517
S'0'
aS'0'
aS'0'
aS'0'
aS'0.39'
p6518
aS'0'
aS'0.403'
p6519
aS'0'
aS'0'
aS'0.597'
p6520
aS'0'
aS'0'
aS'0'
aS'0'
aS'0.597'
p6521
asI18
(lp6522
S'0'
aS'0'
aS'0'
aS'0'
aS'0'
aS'0'
aS'0'
aS'0'
aS'0'
aS'1'
aS'0'
aS'1'
aS'0'
aS'0'
aS'0'
asI21
(lp6523
S'0'
aS'0'
aS'0'
aS'0'
aS'0'
aS'0'
aS'0'
aS'0'
aS'0'
aS'1'
aS'0'
aS'0'
aS'0'
aS'0'
aS'0'
asI23
(lp6524
S'0'
aS'0'
aS'0'
aS'0.209'
p6525
aS'0'
aS'0'
aS'0'
aS'0'
aS'0'
aS'0'
aS'0'
aS'0'
aS'0'
aS'0'
aS'0.791'
p6526
asI24
(lp6527
S'0'
aS'1'
aS'0'
aS'0'
aS'0'
aS'0'
aS'0'
aS'0'
aS'0'
aS'0'
aS'0'
aS'0'
aS'0'
aS'0'
aS'0'
asI25
(lp6528
S'0'
aS'1'
aS'0'
aS'0'
aS'0'
aS'0'
aS'0'
aS'0'
aS'0'
aS'0.655'
p6529
aS'0'
aS'0'
aS'0'
aS'0'
aS'0'
asI28
(lp6530
S'0'
aS'0'
aS'0'
aS'0'
aS'0'
aS'0'
aS'1'
aS'0'
aS'0'
aS'0'
aS'0'
aS'0'
aS'0'
aS'0'
aS'0'
asI30
(lp6531
S'0'
aS'0'
aS'0'
aS'0'
aS'0'
aS'0'
aS'0'
aS'0'
aS'0'
aS'0'
aS'0'
aS'0'
aS'0'
aS'0'
aS'1'
asI31
(lp6532
S'0'
aS'0'
aS'0'
aS'0'
aS'0'
aS'0'
aS'0.803'
p6533
aS'0'
aS'0'
aS'0'
aS'0'
aS'0'
aS'0.197'
p6534
aS'0'
aS'0'
asI32
(lp6535
S'0'
aS'0'
aS'0'
aS'1'
aS'0'
aS'0'
aS'0'
aS'0'
aS'0'
aS'0'
aS'0'
aS'0'
aS'0'
aS'0'
aS'0'
asI34
(lp6536
S'0'
aS'0'
aS'0'
aS'1'
aS'0'
aS'0'
aS'0'
aS'0'
aS'0'
aS'0'
aS'0'
aS'0'
aS'0'
aS'0'
aS'0'
asI36
(lp6537
S'0'
aS'0'
aS'0'
aS'0'
aS'0'
aS'0'
aS'1'
aS'0'
aS'0'
aS'0'
aS'0'
aS'0'
aS'0'
aS'0'
aS'0'
asI37
(lp6538
S'1'
aS'1'
aS'0'
aS'0'
aS'0'
aS'0'
aS'0'
aS'0'
aS'0'
aS'0.797'
p6539
aS'0'
aS'0'
aS'0'
aS'0'
aS'0'
asI38
(lp6540
S'0'
aS'0.8'
p6541
aS'0'
aS'0'
aS'0.205'
p6542
aS'0'
aS'0.2'
p6543
aS'0'
aS'0'
aS'0.595'
p6544
aS'0'
aS'0'
aS'0'
aS'0'
aS'0'
asI41
(lp6545
S'0'
aS'0.417'
p6546
aS'0'
aS'0'
aS'0'
aS'0'
aS'0.583'
p6547
aS'0'
aS'0.215'
p6548
aS'0'
aS'0'
aS'0'
aS'0'
aS'0'
aS'0'
asI42
(lp6549
S'0'
aS'0'
aS'0'
aS'1'
aS'0'
aS'0'
aS'0'
aS'0'
aS'0'
aS'0'
aS'0'
aS'0'
aS'0'
aS'0'
aS'0'
asI44
(lp6550
S'0'
aS'0'
aS'0'
aS'0'
aS'0'
aS'0'
aS'0'
aS'0'
aS'0'
aS'0'
aS'0'
aS'1'
aS'0'
aS'0'
aS'0'
asI46
(lp6551
S'0'
aS'0'
aS'0'
aS'0'
aS'0'
aS'0'
aS'1'
aS'0'
aS'0'
aS'0'
aS'0'
aS'0'
aS'0'
aS'0'
aS'0'
asI47
(lp6552
S'0'
aS'0'
aS'0'
aS'1'
aS'0'
aS'0'
aS'0'
aS'0'
aS'0'
aS'0'
aS'0'
aS'0'
aS'0'
aS'0'
aS'0'
asI48
(lp6553
S'0'
aS'0'
aS'0'
aS'0'
aS'0'
aS'0.34'
p6554
aS'0.66'
p6555
aS'0'
aS'0'
aS'0'
aS'0'
aS'0.34'
p6556
aS'0'
aS'0.34'
p6557
aS'0'
asI49
(lp6558
S'0'
aS'0'
aS'0'
aS'0'
aS'0'
aS'0'
aS'0'
aS'0'
aS'0'
aS'0'
aS'0'
aS'0'
aS'1'
aS'0'
aS'0'
asI50
(lp6559
S'0'
aS'0.198'
p6560
aS'0'
aS'0'
aS'0.193'
p6561
aS'0'
aS'0.197'
p6562
aS'0'
aS'0.206'
p6563
aS'0'
aS'0'
aS'0'
aS'0'
aS'0'
aS'0.206'
p6564
asI51
(lp6565
S'0'
aS'0'
aS'0'
aS'0'
aS'0'
aS'0'
aS'0'
aS'0'
aS'0'
aS'0'
aS'0'
aS'0'
aS'1'
aS'0'
aS'0'
asI52
(lp6566
S'0'
aS'0'
aS'0'
aS'0'
aS'0'
aS'0'
aS'0.737'
p6567
aS'0'
aS'0'
aS'0'
aS'0'
aS'0'
aS'0.263'
p6568
aS'0'
aS'0'
asI53
(lp6569
S'0'
aS'0'
aS'0'
aS'0'
aS'0'
aS'0'
aS'0.756'
p6570
aS'0'
aS'0'
aS'0.244'
p6571
aS'0'
aS'0'
aS'0'
aS'0'
aS'0'
asI54
(lp6572
S'0'
aS'0'
aS'0'
aS'0'
aS'0'
aS'0'
aS'0'
aS'0'
aS'0'
aS'1'
aS'0'
aS'0'
aS'0'
aS'0'
aS'0'
asI56
(lp6573
S'0'
aS'0'
aS'0'
aS'0'
aS'0'
aS'0'
aS'1'
aS'0'
aS'0'
aS'0'
aS'0'
aS'0'
aS'0'
aS'0'
aS'0'
asI58
(lp6574
S'0'
aS'1'
aS'0'
aS'0'
aS'0'
aS'0'
aS'0'
aS'0'
aS'0'
aS'0'
aS'0'
aS'0'
aS'0'
aS'0'
aS'0'
asI60
(lp6575
S'0'
aS'0'
aS'0'
aS'0'
aS'0'
aS'0'
aS'0'
aS'0'
aS'0'
aS'1'
aS'0'
aS'0'
aS'0'
aS'0'
aS'0'
asI62
(lp6576
S'0'
aS'0'
aS'0'
aS'0.266'
p6577
aS'0'
aS'0'
aS'0.734'
p6578
aS'0'
aS'0'
aS'0'
aS'0'
aS'0'
aS'0'
aS'0'
aS'0'
asI63
(lp6579
S'0.194'
p6580
aS'0'
aS'0'
aS'0'
aS'0'
aS'0'
aS'0'
aS'0'
aS'0'
aS'0.194'
p6581
aS'0'
aS'0.796'
p6582
aS'0'
aS'0.204'
p6583
aS'0.194'
p6584
asI64
(lp6585
S'0.196'
p6586
aS'0'
aS'0'
aS'0'
aS'0'
aS'0'
aS'0'
aS'0'
aS'0'
aS'0.394'
p6587
aS'0'
aS'1'
aS'0'
aS'0'
aS'0'
asI66
(lp6588
S'0'
aS'0'
aS'0'
aS'1'
aS'0'
aS'0'
aS'0'
aS'0'
aS'0'
aS'0'
aS'0'
aS'0'
aS'0'
aS'0'
aS'0'
asI68
(lp6589
S'0'
aS'0'
aS'0'
aS'0'
aS'0'
aS'0'
aS'0.617'
p6590
aS'0'
aS'0.383'
p6591
aS'0'
aS'0'
aS'0'
aS'0'
aS'0'
aS'0'
asI69
(lp6592
S'0'
aS'0'
aS'0'
aS'0'
aS'0'
aS'0'
aS'0'
aS'0'
aS'0'
aS'0'
aS'0'
aS'1'
aS'0'
aS'0'
aS'0'
asI70
(lp6593
S'0'
aS'0'
aS'0'
aS'0.189'
p6594
aS'0.205'
p6595
aS'0'
aS'0.409'
p6596
aS'0'
aS'0.197'
p6597
aS'0'
aS'0'
aS'0'
aS'0'
aS'0'
aS'0.205'
p6598
asI72
(lp6599
S'0'
aS'0'
aS'0'
aS'0'
aS'0'
aS'0'
aS'0'
aS'0'
aS'0'
aS'0'
aS'1'
aS'0'
aS'0'
aS'0'
aS'0'
asI74
(lp6600
S'0'
aS'0'
aS'0'
aS'0'
aS'0'
aS'0'
aS'0'
aS'0'
aS'0.527'
p6601
aS'0.273'
p6602
aS'0'
aS'1'
aS'0'
aS'0'
aS'0'
asI75
(lp6603
S'0'
aS'0'
aS'0'
aS'0'
aS'0'
aS'0'
aS'0'
aS'0'
aS'0'
aS'0'
aS'0'
aS'0'
aS'1'
aS'0'
aS'0'
asI76
(lp6604
S'0'
aS'0'
aS'0'
aS'0'
aS'0'
aS'0'
aS'0'
aS'0'
aS'0.515'
p6605
aS'0'
aS'0.485'
p6606
aS'0'
aS'0'
aS'0'
aS'0'
asI77
(lp6607
S'0'
aS'0'
aS'0'
aS'0'
aS'1'
aS'0'
aS'0'
aS'0'
aS'0'
aS'0'
aS'0'
aS'0'
aS'0.196'
p6608
aS'0'
aS'0'
asI78
(lp6609
S'0'
aS'0'
aS'0'
aS'0'
aS'0'
aS'0'
aS'0.588'
p6610
aS'0'
aS'0.412'
p6611
aS'0'
aS'0'
aS'0'
aS'0'
aS'0'
aS'0'
asI79
(lp6612
S'0'
aS'0'
aS'0'
aS'0'
aS'0'
aS'0'
aS'0'
aS'0'
aS'0'
aS'0'
aS'0'
aS'0'
aS'1'
aS'0'
aS'0'
asI80
(lp6613
S'0'
aS'0'
aS'0'
aS'0'
aS'0'
aS'0'
aS'0'
aS'0'
aS'0'
aS'0'
aS'0'
aS'1'
aS'0'
aS'0'
aS'0'
asI81
(lp6614
S'0'
aS'0.39'
p6615
aS'0'
aS'0'
aS'0'
aS'0'
aS'0.61'
p6616
aS'0'
aS'0'
aS'0'
aS'0'
aS'0'
aS'0'
aS'0'
aS'0'
asI82
(lp6617
S'0'
aS'0'
aS'0'
aS'0'
aS'0'
aS'0'
aS'0'
aS'0'
aS'0.266'
p6618
aS'0'
aS'0'
aS'0'
aS'0'
aS'0'
aS'1'
asI84
(lp6619
S'0'
aS'0'
aS'0'
aS'0'
aS'0'
aS'0'
aS'0'
aS'0'
aS'0'
aS'0'
aS'0'
aS'0'
aS'1'
aS'0'
aS'0'
asI85
(lp6620
S'0.204'
p6621
aS'0'
aS'0'
aS'0'
aS'0'
aS'0'
aS'0.593'
p6622
aS'0'
aS'0.203'
p6623
aS'0'
aS'0'
aS'0'
aS'0'
aS'0'
aS'0'
asI91
(lp6624
S'0'
aS'0'
aS'0'
aS'0'
aS'0'
aS'0'
aS'0'
aS'0'
aS'0'
aS'0'
aS'0'
aS'1'
aS'0'
aS'0'
aS'0'
asI92
(lp6625
S'0'
aS'0'
aS'0'
aS'0'
aS'0'
aS'0'
aS'0'
aS'0'
aS'0'
aS'0'
aS'0'
aS'1'
aS'0'
aS'0'
aS'0'
asI93
(lp6626
S'0'
aS'0'
aS'0'
aS'0'
aS'0'
aS'0'
aS'0'
aS'0'
aS'1'
aS'0'
aS'0'
aS'0'
aS'0'
aS'0'
aS'0'
asI94
(lp6627
S'0'
aS'0'
aS'0'
aS'0'
aS'0'
aS'0'
aS'0'
aS'0'
aS'0'
aS'0'
aS'1'
aS'0'
aS'0'
aS'0'
aS'0'
asI95
(lp6628
S'0'
aS'0'
aS'0'
aS'0.795'
p6629
aS'0'
aS'0'
aS'0.205'
p6630
aS'0'
aS'0'
aS'0'
aS'0'
aS'0'
aS'0.191'
p6631
aS'0'
aS'0'
asI96
(lp6632
S'0'
aS'0'
aS'0'
aS'0'
aS'0'
aS'0'
aS'0'
aS'0'
aS'0'
aS'1'
aS'0'
aS'0'
aS'0'
aS'0'
aS'0'
asI97
(lp6633
S'0'
aS'0'
aS'0'
aS'0'
aS'0'
aS'0'
aS'0'
aS'0'
aS'0'
aS'0'
aS'0'
aS'0'
aS'0'
aS'0'
aS'1'
asI98
(lp6634
S'0'
aS'0'
aS'0'
aS'0'
aS'0'
aS'0'
aS'0.804'
p6635
aS'0'
aS'0'
aS'0'
aS'0'
aS'0'
aS'0.196'
p6636
aS'0'
aS'0'
asI99
(lp6637
S'0'
aS'0'
aS'0'
aS'0'
aS'0'
aS'0'
aS'0'
aS'0'
aS'0'
aS'0'
aS'1'
aS'0'
aS'0'
aS'0'
aS'0'
asI101
(lp6638
S'0'
aS'0'
aS'0'
aS'0'
aS'0'
aS'0'
aS'1'
aS'0'
aS'0'
aS'0'
aS'0'
aS'0'
aS'0'
aS'0'
aS'0'
asI102
(lp6639
S'0'
aS'0'
aS'0'
aS'0'
aS'0'
aS'0'
aS'0.788'
p6640
aS'0'
aS'0.212'
p6641
aS'0'
aS'0'
aS'0'
aS'0'
aS'0'
aS'0'
asI104
(lp6642
S'0'
aS'0.503'
p6643
aS'0'
aS'0.258'
p6644
aS'0'
aS'0'
aS'0.497'
p6645
aS'0'
aS'0'
aS'0'
aS'0'
aS'0'
aS'0'
aS'0'
aS'0'
asI105
(lp6646
S'0'
aS'0'
aS'0'
aS'0'
aS'0'
aS'0'
aS'0'
aS'0'
aS'0'
aS'0'
aS'0'
aS'1'
aS'0'
aS'0'
aS'0'
asI107
(lp6647
S'0'
aS'0'
aS'0'
aS'0'
aS'0'
aS'0'
aS'0'
aS'0'
aS'0'
aS'0'
aS'0'
aS'0'
aS'1'
aS'0'
aS'0'
asI108
(lp6648
S'0'
aS'1'
aS'0'
aS'0'
aS'0'
aS'0'
aS'0'
aS'0'
aS'0'
aS'0'
aS'0'
aS'0'
aS'0'
aS'0'
aS'0'
asI109
(lp6649
S'0'
aS'0'
aS'0'
aS'0'
aS'0'
aS'0'
aS'0'
aS'0'
aS'0'
aS'1'
aS'0'
aS'0'
aS'0'
aS'0'
aS'0'
asI111
(lp6650
S'0'
aS'0'
aS'0'
aS'0'
aS'0'
aS'0'
aS'0'
aS'0'
aS'0'
aS'1'
aS'0'
aS'1'
aS'0'
aS'0'
aS'0'
asI112
(lp6651
S'0'
aS'0'
aS'0'
aS'0'
aS'0'
aS'0'
aS'0'
aS'0'
aS'0'
aS'0'
aS'0'
aS'0'
aS'1'
aS'0'
aS'0'
asI115
(lp6652
S'0'
aS'1'
aS'0'
aS'0'
aS'0'
aS'0'
aS'0'
aS'0'
aS'0'
aS'0'
aS'0'
aS'0'
aS'0'
aS'0'
aS'0'
asI117
(lp6653
S'0'
aS'0'
aS'0'
aS'0'
aS'0'
aS'0'
aS'0.822'
p6654
aS'0'
aS'0.178'
p6655
aS'0'
aS'0'
aS'0'
aS'0'
aS'0'
aS'0'
asI119
(lp6656
S'0'
aS'0'
aS'0'
aS'0'
aS'0'
aS'0'
aS'1'
aS'0'
aS'0'
aS'0'
aS'0'
aS'0'
aS'0'
aS'0'
aS'0'
asI120
(lp6657
S'0'
aS'0'
aS'0'
aS'0'
aS'0'
aS'0'
aS'0'
aS'0'
aS'0'
aS'1'
aS'0'
aS'0'
aS'0'
aS'0'
aS'0'
asI121
(lp6658
S'0'
aS'0.396'
p6659
aS'0'
aS'0.389'
p6660
aS'0'
aS'0'
aS'0'
aS'0'
aS'0.405'
p6661
aS'0'
aS'0'
aS'0'
aS'0.204'
p6662
aS'0'
aS'0'
asI122
(lp6663
S'0'
aS'0'
aS'0'
aS'0'
aS'0'
aS'0'
aS'0.662'
p6664
aS'0'
aS'0.338'
p6665
aS'0'
aS'0'
aS'0'
aS'0'
aS'0'
aS'0'
asI124
(lp6666
S'0'
aS'0'
aS'0'
aS'0.6'
p6667
aS'0.19'
p6668
aS'0'
aS'0'
aS'0'
aS'0.603'
p6669
aS'0'
aS'0'
aS'0'
aS'0.206'
p6670
aS'0'
aS'0.6'
p6671
asI125
(lp6672
S'0'
aS'0'
aS'0'
aS'0'
aS'0'
aS'0'
aS'0.669'
p6673
aS'0'
aS'0.331'
p6674
aS'0'
aS'0'
aS'0'
aS'0'
aS'0'
aS'0'
asI126
(lp6675
S'0'
aS'0'
aS'0'
aS'0'
aS'0'
aS'0'
aS'0.508'
p6676
aS'0'
aS'0'
aS'0.492'
p6677
aS'0'
aS'0'
aS'0.171'
p6678
aS'0'
aS'0'
asI130
(lp6679
S'0'
aS'0'
aS'0'
aS'0'
aS'0'
aS'0'
aS'0.804'
p6680
aS'0'
aS'0.196'
p6681
aS'0'
aS'0'
aS'0'
aS'0'
aS'0'
aS'0'
asI131
(lp6682
S'0'
aS'0'
aS'0'
aS'0'
aS'0'
aS'0'
aS'0'
aS'0'
aS'0.417'
p6683
aS'0'
aS'0'
aS'1'
aS'0'
aS'0'
aS'0.616'
p6684
asI132
(lp6685
S'0'
aS'0'
aS'0'
aS'0'
aS'0'
aS'0'
aS'1'
aS'0'
aS'0'
aS'0'
aS'0'
aS'0'
aS'0'
aS'0'
aS'0'
asI133
(lp6686
S'0'
aS'1'
aS'0'
aS'1'
aS'0'
aS'0'
aS'0'
aS'0'
aS'0'
aS'0.803'
p6687
aS'0'
aS'0'
aS'0'
aS'0'
aS'0.806'
p6688
asI134
(lp6689
S'0'
aS'0'
aS'0'
aS'0'
aS'0'
aS'0'
aS'0'
aS'0'
aS'0'
aS'0'
aS'0'
aS'0'
aS'1'
aS'0'
aS'0'
asI135
(lp6690
S'0'
aS'0.337'
p6691
aS'0.169'
p6692
aS'0.169'
p6693
aS'0'
aS'0'
aS'0.337'
p6694
aS'0'
aS'0.157'
p6695
aS'0'
aS'0'
aS'0'
aS'0.337'
p6696
aS'0'
aS'0'
asI136
(lp6697
S'0'
aS'0'
aS'0'
aS'0'
aS'0'
aS'0'
aS'0'
aS'0'
aS'0'
aS'0'
aS'0'
aS'0'
aS'1'
aS'0'
aS'0'
asI137
(lp6698
S'0'
aS'0'
aS'0'
aS'0'
aS'0'
aS'0'
aS'1'
aS'0'
aS'0'
aS'0'
aS'0'
aS'0'
aS'0'
aS'0'
aS'0'
asI138
(lp6699
S'0'
aS'0'
aS'0'
aS'0'
aS'0'
aS'0'
aS'0'
aS'0'
aS'0'
aS'1'
aS'0'
aS'0'
aS'0'
aS'0'
aS'0'
asI139
(lp6700
S'0'
aS'0'
aS'0'
aS'0'
aS'0'
aS'0'
aS'0'
aS'0'
aS'0'
aS'0'
aS'0'
aS'0'
aS'1'
aS'0'
aS'0'
asI140
(lp6701
S'0'
aS'0'
aS'0'
aS'0'
aS'0'
aS'0'
aS'1'
aS'0'
aS'0'
aS'0'
aS'0'
aS'0'
aS'0'
aS'0'
aS'0'
asI141
(lp6702
S'0'
aS'0'
aS'0.202'
p6703
aS'0'
aS'0'
aS'0'
aS'0'
aS'0'
aS'0.19'
p6704
aS'0'
aS'0.608'
p6705
aS'0'
aS'0'
aS'0'
aS'0'
asI142
(lp6706
S'0'
aS'0'
aS'0'
aS'0'
aS'0'
aS'0'
aS'0'
aS'0'
aS'0'
aS'0'
aS'0'
aS'1'
aS'0'
aS'0'
aS'0'
asI143
(lp6707
S'0'
aS'0'
aS'0'
aS'0'
aS'0'
aS'0'
aS'0.797'
p6708
aS'0'
aS'0.203'
p6709
aS'0'
aS'0'
aS'0'
aS'0'
aS'0'
aS'0'
asI144
(lp6710
S'0'
aS'1'
aS'0'
aS'0'
aS'0'
aS'0'
aS'0'
aS'0'
aS'0'
aS'0'
aS'0'
aS'0'
aS'0'
aS'0'
aS'0'
asI146
(lp6711
S'0'
aS'0'
aS'0'
aS'0'
aS'0'
aS'0'
aS'0.801'
p6712
aS'0'
aS'0.199'
p6713
aS'0'
aS'0'
aS'0'
aS'0'
aS'0'
aS'0'
asI147
(lp6714
S'0'
aS'0'
aS'0'
aS'0'
aS'0'
aS'0'
aS'0'
aS'0'
aS'0'
aS'0'
aS'0'
aS'1'
aS'0'
aS'0'
aS'0'
asI148
(lp6715
S'0'
aS'0'
aS'0'
aS'0'
aS'0'
aS'0'
aS'0.391'
p6716
aS'0'
aS'0.609'
p6717
aS'0'
aS'0'
aS'0'
aS'0'
aS'0'
aS'0'
asI150
(lp6718
S'0'
aS'0'
aS'0'
aS'0.205'
p6719
aS'0'
aS'0'
aS'0'
aS'0'
aS'0.214'
p6720
aS'0'
aS'0'
aS'0'
aS'1'
aS'0'
aS'0'
asI151
(lp6721
S'0'
aS'0'
aS'0'
aS'0'
aS'0'
aS'0'
aS'1'
aS'0'
aS'0'
aS'0'
aS'0'
aS'0'
aS'0'
aS'0'
aS'0'
asI152
(lp6722
S'0'
aS'0'
aS'0'
aS'0.747'
p6723
aS'0'
aS'0'
aS'0'
aS'0'
aS'0.253'
p6724
aS'0'
aS'0'
aS'0'
aS'0'
aS'0'
aS'0'
asI155
(lp6725
S'0'
aS'0.6'
p6726
aS'0'
aS'0'
aS'0'
aS'0'
aS'0'
aS'0'
aS'0.601'
p6727
aS'0'
aS'0'
aS'0'
aS'0'
aS'0'
aS'0'
asI156
(lp6728
S'0.412'
p6729
aS'0'
aS'0'
aS'0'
aS'0'
aS'0'
aS'0'
aS'0'
aS'0.202'
p6730
aS'0'
aS'0'
aS'0'
aS'0.588'
p6731
aS'0'
aS'0'
asI157
(lp6732
S'0'
aS'0.597'
p6733
aS'0'
aS'0'
aS'0.399'
p6734
aS'0'
aS'0'
aS'0'
aS'0.208'
p6735
aS'0'
aS'0'
aS'0'
aS'0'
aS'0'
aS'0.603'
p6736
asI158
(lp6737
S'0'
aS'0'
aS'0'
aS'0'
aS'0'
aS'0'
aS'0.499'
p6738
aS'0'
aS'0.248'
p6739
aS'0.253'
p6740
aS'0'
aS'0.499'
p6741
aS'0'
aS'0.253'
p6742
aS'0'
asI159
(lp6743
S'0'
aS'0'
aS'0'
aS'0'
aS'0'
aS'0'
aS'1'
aS'0'
aS'0'
aS'0'
aS'0'
aS'0'
aS'0'
aS'0'
aS'0'
asI160
(lp6744
S'0'
aS'0.412'
p6745
aS'0'
aS'0'
aS'0.399'
p6746
aS'0'
aS'0.189'
p6747
aS'0'
aS'0'
aS'0'
aS'0'
aS'0'
aS'0'
aS'0'
aS'0.206'
p6748
asI164
(lp6749
S'0'
aS'0'
aS'0'
aS'0'
aS'0'
aS'0'
aS'0'
aS'0'
aS'0'
aS'0'
aS'0'
aS'1'
aS'0'
aS'0'
aS'0'
asI167
(lp6750
S'0.262'
p6751
aS'0'
aS'0'
aS'0'
aS'0'
aS'0'
aS'0'
aS'0'
aS'0'
aS'0'
aS'0'
aS'0.512'
p6752
aS'0'
aS'0.754'
p6753
aS'0'
asI168
(lp6754
S'0'
aS'0'
aS'0'
aS'0'
aS'0'
aS'0'
aS'1'
aS'0'
aS'0'
aS'0'
aS'0'
aS'0'
aS'0'
aS'0'
aS'0'
asI169
(lp6755
S'0'
aS'0'
aS'0'
aS'0'
aS'0'
aS'0'
aS'0'
aS'0'
aS'0'
aS'1'
aS'0'
aS'0.553'
p6756
aS'0'
aS'0'
aS'0'
asI170
(lp6757
S'0'
aS'0'
aS'0'
aS'0'
aS'0'
aS'0'
aS'1'
aS'0'
aS'0'
aS'0'
aS'0'
aS'0'
aS'0'
aS'0'
aS'0'
asI171
(lp6758
S'0'
aS'0'
aS'0'
aS'0'
aS'0'
aS'0'
aS'0.746'
p6759
aS'0'
aS'0.53'
p6760
aS'0'
aS'0'
aS'0'
aS'0'
aS'0'
aS'0'
asI173
(lp6761
S'0'
aS'0'
aS'0'
aS'0'
aS'0'
aS'0'
aS'1'
aS'0'
aS'0'
aS'0'
aS'0'
aS'0'
aS'0'
aS'0'
aS'0'
asI174
(lp6762
S'0'
aS'0'
aS'0'
aS'0'
aS'0'
aS'0'
aS'0'
aS'0'
aS'0'
aS'0'
aS'0'
aS'0'
aS'1'
aS'0'
aS'0'
asI175
(lp6763
S'0'
aS'0'
aS'0'
aS'0'
aS'0'
aS'0'
aS'0.764'
p6764
aS'0'
aS'0.236'
p6765
aS'0'
aS'0'
aS'0'
aS'0'
aS'0'
aS'0'
asI176
(lp6766
S'0'
aS'0'
aS'0'
aS'0'
aS'0'
aS'0'
aS'0.199'
p6767
aS'0'
aS'0.215'
p6768
aS'0.179'
p6769
aS'0'
aS'0.801'
p6770
aS'0'
aS'0'
aS'0'
asI177
(lp6771
S'0'
aS'0'
aS'0'
aS'0'
aS'0'
aS'0'
aS'0'
aS'1'
aS'0'
aS'0'
aS'1'
aS'0'
aS'1'
aS'0'
aS'0'
asI179
(lp6772
S'0'
aS'0'
aS'0'
aS'0'
aS'0'
aS'0'
aS'0.859'
p6773
aS'0'
aS'0.141'
p6774
aS'0'
aS'0'
aS'0'
aS'0'
aS'0'
aS'0'
asI180
(lp6775
S'0'
aS'0'
aS'0'
aS'0'
aS'0'
aS'0'
aS'1'
aS'0'
aS'0'
aS'0'
aS'0'
aS'0'
aS'0'
aS'0'
aS'0'
asI183
(lp6776
S'0'
aS'0'
aS'0'
aS'0'
aS'0'
aS'0'
aS'1'
aS'0'
aS'0'
aS'0'
aS'0'
aS'0'
aS'0'
aS'0'
aS'0'
asI184
(lp6777
S'0'
aS'0'
aS'0'
aS'0'
aS'0'
aS'0'
aS'1'
aS'0'
aS'0'
aS'0'
aS'0'
aS'0'
aS'0'
aS'0'
aS'0'
asI185
(lp6778
S'0'
aS'0'
aS'0'
aS'0'
aS'0'
aS'0'
aS'0'
aS'0'
aS'0'
aS'0'
aS'0'
aS'0'
aS'1'
aS'0'
aS'0'
asI186
(lp6779
S'0'
aS'0'
aS'0'
aS'0'
aS'0'
aS'0'
aS'1'
aS'0'
aS'0'
aS'0'
aS'0'
aS'0'
aS'0'
aS'0'
aS'0'
asI187
(lp6780
S'0'
aS'0'
aS'0'
aS'0'
aS'0'
aS'0'
aS'0'
aS'0'
aS'0'
aS'0'
aS'0'
aS'1'
aS'0'
aS'0'
aS'0'
asI188
(lp6781
S'0'
aS'0'
aS'0'
aS'0'
aS'0'
aS'0'
aS'0'
aS'0'
aS'0'
aS'1'
aS'0'
aS'0'
aS'0'
aS'0'
aS'0'
asI189
(lp6782
S'0'
aS'1'
aS'0'
aS'0'
aS'0'
aS'0'
aS'0'
aS'0'
aS'0'
aS'0'
aS'0'
aS'0'
aS'0'
aS'0'
aS'0'
asI190
(lp6783
S'0'
aS'0'
aS'0'
aS'0'
aS'0'
aS'0'
aS'0.182'
p6784
aS'0'
aS'0.2'
p6785
aS'0.818'
p6786
aS'0'
aS'0'
aS'0'
aS'0'
aS'0'
asI191
(lp6787
S'0'
aS'0'
aS'0'
aS'0.626'
p6788
aS'0'
aS'0'
aS'0'
aS'0'
aS'0.21'
p6789
aS'0'
aS'0'
aS'0'
aS'1'
aS'0'
aS'0'
asI194
(lp6790
S'0'
aS'0'
aS'0'
aS'0'
aS'0'
aS'0'
aS'0.796'
p6791
aS'0'
aS'0.204'
p6792
aS'0'
aS'0'
aS'0'
aS'0'
aS'0'
aS'0'
asI195
(lp6793
S'0'
aS'0'
aS'0'
aS'0'
aS'1'
aS'0'
aS'0'
aS'0'
aS'0.198'
p6794
aS'0'
aS'0'
aS'0'
aS'0.198'
p6795
aS'0'
aS'0'
asI197
(lp6796
S'0.31'
p6797
aS'0.31'
p6798
aS'0'
aS'0'
aS'0'
aS'0'
aS'0'
aS'0'
aS'0'
aS'1'
aS'0.644'
p6799
aS'0'
aS'0'
aS'0'
aS'0'
asI198
(lp6800
S'0'
aS'0'
aS'0'
aS'0'
aS'0'
aS'0'
aS'1'
aS'0'
aS'0'
aS'0'
aS'0'
aS'0'
aS'0'
aS'0'
aS'0'
asI199
(lp6801
S'0'
aS'0'
aS'0'
aS'0'
aS'0'
aS'0'
aS'0.194'
p6802
aS'0'
aS'0.403'
p6803
aS'0'
aS'0'
aS'0'
aS'0.806'
p6804
aS'0'
aS'0'
asI201
(lp6805
S'0'
aS'0'
aS'0'
aS'0'
aS'0'
aS'0'
aS'0'
aS'0'
aS'0'
aS'0'
aS'0'
aS'1'
aS'0'
aS'0'
aS'0'
asI202
(lp6806
S'0'
aS'0.605'
p6807
aS'0'
aS'0'
aS'0'
aS'0'
aS'0'
aS'0'
aS'0.395'
p6808
aS'0'
aS'0'
aS'0'
aS'0'
aS'0'
aS'0'
asI203
(lp6809
S'0.204'
p6810
aS'0'
aS'0'
aS'0'
aS'0'
aS'0'
aS'0'
aS'0'
aS'0.197'
p6811
aS'1'
aS'0'
aS'0'
aS'0'
aS'0'
aS'0'
asI205
(lp6812
S'0'
aS'0'
aS'0'
aS'1'
aS'0'
aS'0'
aS'0'
aS'0'
aS'0'
aS'0'
aS'0'
aS'0'
aS'0'
aS'0'
aS'0'
asI206
(lp6813
S'0'
aS'1'
aS'0'
aS'0'
aS'0'
aS'0'
aS'0'
aS'0'
aS'0'
aS'0'
aS'0'
aS'0'
aS'0'
aS'0'
aS'0'
asI207
(lp6814
S'0'
aS'0'
aS'0'
aS'0'
aS'0'
aS'0'
aS'1'
aS'0'
aS'0'
aS'0'
aS'0'
aS'0'
aS'0'
aS'0'
aS'0'
asI208
(lp6815
S'0'
aS'0'
aS'0'
aS'0'
aS'0'
aS'0'
aS'0'
aS'0'
aS'0'
aS'0'
aS'0'
aS'1'
aS'0'
aS'0'
aS'0'
asI209
(lp6816
S'0'
aS'0'
aS'0'
aS'0'
aS'0'
aS'0'
aS'0'
aS'0'
aS'0'
aS'1'
aS'0'
aS'0'
aS'0'
aS'0'
aS'0'
asI210
(lp6817
S'0'
aS'1'
aS'0'
aS'0'
aS'0.211'
p6818
aS'0'
aS'0'
aS'0'
aS'0.206'
p6819
aS'0.583'
p6820
aS'0'
aS'0'
aS'0'
aS'0'
aS'0'
asI211
(lp6821
S'0'
aS'0'
aS'0'
aS'0'
aS'0'
aS'0'
aS'0.747'
p6822
aS'0'
aS'0.253'
p6823
aS'0'
aS'0'
aS'0'
aS'0'
aS'0'
aS'0'
asI212
(lp6824
S'0'
aS'0'
aS'0'
aS'0.4'
p6825
aS'0'
aS'0'
aS'0.2'
p6826
aS'0'
aS'0.4'
p6827
aS'0'
aS'0'
aS'0'
aS'0'
aS'0'
aS'0'
asI214
(lp6828
S'0'
aS'0'
aS'0'
aS'0'
aS'0'
aS'0'
aS'0'
aS'0'
aS'0'
aS'0'
aS'0'
aS'1'
aS'0'
aS'0'
aS'0'
asI216
(lp6829
S'0'
aS'0'
aS'0'
aS'0'
aS'0'
aS'0'
aS'0'
aS'0'
aS'0'
aS'0'
aS'0'
aS'1'
aS'0'
aS'0'
aS'0'
asI218
(lp6830
S'0'
aS'0'
aS'0'
aS'0'
aS'0'
aS'0'
aS'1'
aS'0'
aS'0'
aS'0'
aS'0'
aS'0'
aS'0'
aS'0'
aS'0'
asI220
(lp6831
S'0'
aS'0'
aS'0'
aS'0'
aS'0'
aS'0'
aS'0'
aS'0'
aS'0'
aS'0'
aS'0'
aS'1'
aS'0'
aS'0'
aS'0'
asI221
(lp6832
S'0.209'
p6833
aS'0'
aS'0'
aS'0'
aS'0'
aS'0'
aS'0'
aS'0'
aS'0'
aS'0.209'
p6834
aS'0'
aS'1'
aS'0'
aS'0'
aS'0'
asI223
(lp6835
S'0'
aS'0'
aS'0'
aS'0'
aS'0'
aS'0'
aS'0'
aS'0'
aS'0'
aS'0'
aS'0'
aS'1'
aS'0'
aS'0.752'
p6836
aS'0'
asI226
(lp6837
S'0'
aS'0'
aS'0'
aS'0'
aS'0'
aS'0'
aS'0'
aS'0'
aS'0'
aS'0.216'
p6838
aS'0'
aS'0'
aS'1'
aS'0'
aS'0'
asI227
(lp6839
S'0'
aS'0'
aS'0'
aS'0'
aS'0'
aS'0'
aS'1'
aS'0'
aS'0'
aS'0'
aS'0'
aS'0'
aS'0'
aS'0'
aS'0'
asI229
(lp6840
S'0'
aS'0'
aS'0'
aS'0'
aS'0'
aS'0'
aS'1'
aS'0'
aS'0'
aS'0'
aS'0'
aS'0'
aS'0'
aS'0'
aS'0'
asI230
(lp6841
S'0'
aS'0.516'
p6842
aS'0'
aS'0'
aS'0'
aS'0'
aS'0'
aS'0'
aS'0.484'
p6843
aS'0'
aS'0'
aS'0'
aS'0'
aS'0'
aS'0'
asI231
(lp6844
S'0'
aS'0'
aS'0'
aS'0'
aS'0'
aS'0'
aS'1'
aS'0'
aS'0'
aS'0'
aS'0'
aS'0'
aS'0'
aS'0'
aS'0'
asI233
(lp6845
S'0'
aS'0'
aS'0'
aS'0.793'
p6846
aS'0'
aS'0'
aS'0.207'
p6847
aS'0'
aS'0'
aS'0'
aS'0'
aS'0'
aS'0'
aS'0'
aS'0'
asI234
(lp6848
S'0'
aS'0'
aS'0'
aS'1'
aS'0'
aS'0'
aS'0'
aS'0'
aS'0'
aS'0'
aS'0'
aS'0'
aS'0.205'
p6849
aS'0'
aS'0'
asI237
(lp6850
S'0'
aS'0'
aS'0'
aS'0'
aS'0'
aS'0'
aS'0'
aS'0'
aS'0'
aS'1'
aS'0'
aS'0'
aS'0'
aS'0'
aS'0'
asI238
(lp6851
S'0'
aS'0'
aS'0'
aS'0'
aS'0'
aS'0'
aS'0.616'
p6852
aS'0'
aS'0.191'
p6853
aS'0'
aS'0'
aS'0'
aS'0.193'
p6854
aS'0'
aS'0'
asI240
(lp6855
S'0'
aS'0'
aS'0'
aS'0'
aS'0'
aS'0'
aS'0'
aS'0'
aS'1'
aS'0'
aS'0'
aS'0'
aS'0'
aS'0'
aS'0'
asI245
(lp6856
S'0'
aS'0'
aS'0'
aS'0'
aS'0'
aS'0'
aS'0'
aS'0'
aS'0'
aS'0'
aS'0'
aS'1'
aS'0'
aS'0'
aS'0'
asI246
(lp6857
S'0'
aS'0'
aS'0'
aS'0'
aS'0'
aS'0'
aS'0'
aS'0'
aS'0'
aS'0'
aS'0'
aS'1'
aS'0'
aS'0'
aS'0'
asI247
(lp6858
S'0'
aS'0'
aS'0'
aS'0'
aS'0'
aS'0'
aS'1'
aS'0'
aS'0'
aS'0'
aS'0'
aS'0'
aS'0'
aS'0'
aS'0'
asI248
(lp6859
S'0'
aS'0'
aS'0'
aS'0'
aS'0'
aS'0'
aS'0'
aS'0'
aS'0'
aS'1'
aS'0'
aS'0'
aS'0'
aS'0'
aS'0'
asI251
(lp6860
S'0'
aS'0'
aS'0'
aS'0'
aS'0'
aS'0'
aS'0'
aS'0'
aS'0'
aS'0'
aS'0'
aS'1'
aS'0'
aS'0'
aS'0'
asI252
(lp6861
S'0'
aS'0.805'
p6862
aS'0'
aS'0'
aS'0'
aS'0'
aS'0'
aS'0'
aS'0.195'
p6863
aS'0'
aS'0'
aS'0'
aS'0'
aS'0'
aS'0'
asI253
(lp6864
S'0'
aS'0'
aS'0'
aS'0'
aS'0'
aS'0'
aS'0'
aS'0'
aS'0'
aS'0'
aS'0'
aS'1'
aS'0'
aS'0'
aS'0'
asI254
(lp6865
S'0'
aS'0'
aS'0'
aS'0'
aS'0'
aS'0'
aS'0'
aS'0'
aS'0.597'
p6866
aS'0'
aS'0'
aS'0'
aS'0'
aS'0'
aS'0.796'
p6867
asI256
(lp6868
S'0'
aS'0'
aS'0'
aS'0'
aS'0'
aS'0'
aS'0'
aS'0'
aS'0'
aS'1'
aS'0'
aS'0'
aS'0'
aS'0'
aS'0'
asI257
(lp6869
S'0'
aS'0'
aS'0'
aS'0'
aS'0'
aS'0'
aS'0'
aS'0'
aS'0'
aS'0'
aS'0'
aS'0'
aS'1'
aS'0'
aS'0'
asI258
(lp6870
S'0'
aS'0'
aS'0'
aS'0'
aS'0'
aS'0'
aS'0'
aS'0'
aS'0'
aS'0'
aS'0'
aS'1'
aS'0'
aS'0'
aS'0'
asI259
(lp6871
S'0.798'
p6872
aS'0'
aS'0'
aS'0'
aS'0'
aS'0'
aS'0'
aS'0'
aS'0'
aS'0'
aS'0'
aS'1'
aS'0'
aS'0'
aS'0'
asI261
(lp6873
S'0'
aS'0'
aS'0'
aS'0'
aS'0'
aS'0'
aS'0'
aS'0'
aS'0'
aS'0'
aS'0'
aS'1'
aS'0'
aS'0'
aS'0'
asI262
(lp6874
S'0'
aS'0'
aS'0'
aS'0'
aS'0'
aS'0'
aS'0'
aS'0'
aS'0'
aS'0'
aS'0'
aS'1'
aS'0'
aS'0'
aS'0'
asI264
(lp6875
S'0'
aS'0'
aS'0'
aS'0'
aS'0'
aS'0'
aS'1'
aS'0'
aS'0'
aS'0'
aS'0'
aS'0'
aS'0'
aS'0'
aS'0'
asI265
(lp6876
S'0'
aS'0'
aS'0'
aS'0'
aS'0'
aS'0'
aS'0'
aS'0'
aS'0'
aS'0'
aS'0'
aS'1'
aS'0'
aS'0'
aS'0'
asI267
(lp6877
S'0'
aS'0'
aS'0'
aS'0'
aS'0'
aS'0'
aS'0'
aS'0'
aS'0'
aS'0'
aS'0'
aS'1'
aS'0'
aS'0'
aS'0'
asI268
(lp6878
S'0'
aS'0'
aS'0'
aS'0'
aS'0'
aS'0'
aS'0.798'
p6879
aS'0'
aS'0.202'
p6880
aS'0'
aS'0'
aS'0'
aS'0'
aS'0'
aS'0'
asI269
(lp6881
S'0'
aS'0'
aS'0'
aS'0'
aS'0'
aS'0'
aS'0'
aS'0'
aS'0'
aS'0'
aS'0'
aS'0'
aS'1'
aS'0'
aS'0'
asI270
(lp6882
S'0'
aS'0'
aS'0'
aS'0.205'
p6883
aS'0'
aS'0'
aS'0'
aS'0'
aS'0.201'
p6884
aS'0'
aS'0'
aS'0'
aS'0.799'
p6885
aS'0'
aS'0'
asI271
(lp6886
S'0'
aS'0'
aS'0'
aS'0'
aS'0'
aS'0'
aS'0.598'
p6887
aS'0'
aS'0'
aS'0'
aS'0'
aS'0'
aS'0.402'
p6888
aS'0'
aS'0'
asI272
(lp6889
S'0'
aS'0.806'
p6890
aS'0'
aS'0'
aS'0'
aS'0'
aS'0'
aS'0'
aS'0.194'
p6891
aS'0'
aS'0'
aS'0'
aS'0'
aS'0'
aS'0'
asI273
(lp6892
S'0'
aS'0.216'
p6893
aS'0'
aS'0'
aS'0'
aS'0'
aS'0'
aS'0'
aS'0'
aS'1'
aS'0'
aS'0'
aS'0'
aS'0'
aS'0'
asI276
(lp6894
S'0'
aS'0'
aS'0'
aS'0'
aS'0'
aS'0'
aS'1'
aS'0'
aS'0'
aS'0'
aS'0'
aS'0'
aS'0'
aS'0'
aS'0'
asI277
(lp6895
S'0'
aS'0'
aS'0'
aS'0'
aS'0'
aS'0'
aS'0.793'
p6896
aS'0'
aS'0.207'
p6897
aS'0'
aS'0'
aS'0'
aS'0'
aS'0'
aS'0'
asI280
(lp6898
S'0'
aS'0'
aS'0'
aS'0'
aS'0'
aS'0'
aS'1'
aS'0'
aS'0'
aS'0'
aS'0'
aS'0'
aS'0'
aS'0'
aS'0'
asI281
(lp6899
S'0'
aS'1'
aS'0'
aS'0'
aS'0'
aS'0'
aS'0'
aS'0'
aS'0'
aS'0'
aS'0'
aS'1'
aS'0'
aS'0'
aS'0'
asI282
(lp6900
S'0'
aS'0'
aS'0'
aS'1'
aS'0'
aS'0'
aS'0'
aS'0'
aS'0'
aS'0'
aS'0'
aS'0'
aS'0.322'
p6901
aS'0'
aS'0'
asI283
(lp6902
S'0'
aS'0'
aS'0'
aS'0'
aS'0'
aS'0'
aS'0'
aS'0'
aS'0'
aS'0'
aS'0'
aS'1'
aS'0'
aS'0'
aS'0'
asI284
(lp6903
S'0'
aS'0'
aS'0'
aS'0.604'
p6904
aS'0.412'
p6905
aS'0'
aS'0'
aS'0'
aS'0.207'
p6906
aS'0'
aS'0'
aS'0'
aS'0'
aS'0'
aS'0.601'
p6907
asI285
(lp6908
S'0'
aS'0'
aS'0'
aS'0'
aS'0'
aS'0'
aS'1'
aS'0'
aS'0'
aS'0'
aS'0'
aS'0'
aS'0'
aS'0'
aS'0'
asI287
(lp6909
S'0'
aS'0'
aS'0'
aS'1'
aS'0'
aS'0'
aS'0'
aS'0'
aS'0'
aS'0'
aS'0'
aS'0'
aS'0'
aS'0'
aS'0'
asI288
(lp6910
S'0'
aS'0'
aS'0'
aS'0'
aS'0'
aS'0'
aS'0'
aS'0'
aS'0'
aS'0'
aS'0'
aS'0'
aS'1'
aS'0'
aS'0'
asI289
(lp6911
S'0'
aS'0.795'
p6912
aS'0'
aS'0'
aS'0'
aS'0'
aS'0'
aS'0'
aS'0.205'
p6913
aS'0'
aS'0'
aS'0'
aS'0'
aS'0'
aS'0'
asI290
(lp6914
S'0'
aS'0'
aS'0'
aS'0'
aS'0'
aS'0'
aS'0'
aS'0'
aS'0'
aS'0'
aS'0'
aS'0'
aS'1'
aS'0'
aS'0'
asI291
(lp6915
S'0'
aS'0'
aS'0'
aS'0'
aS'0'
aS'0'
aS'0'
aS'0'
aS'0'
aS'0'
aS'0'
aS'1'
aS'0'
aS'0'
aS'0'
asI293
(lp6916
S'0'
aS'0'
aS'0'
aS'0'
aS'0'
aS'0'
aS'1'
aS'0'
aS'0'
aS'0'
aS'0'
aS'0'
aS'0'
aS'0'
aS'0'
asI294
(lp6917
S'0'
aS'0'
aS'0.399'
p6918
aS'0'
aS'0'
aS'0'
aS'0'
aS'0'
aS'0'
aS'0.789'
p6919
aS'0'
aS'0'
aS'1'
aS'0'
aS'0'
asI295
(lp6920
S'0'
aS'0.211'
p6921
aS'0'
aS'0'
aS'0'
aS'0'
aS'0'
aS'0'
aS'0'
aS'1'
aS'0'
aS'0'
aS'0'
aS'0'
aS'0'
asI297
(lp6922
S'0'
aS'0'
aS'0'
aS'0'
aS'0'
aS'0'
aS'0'
aS'0'
aS'0'
aS'0'
aS'0'
aS'0'
aS'0'
aS'0'
aS'1'
asI298
(lp6923
S'0'
aS'0'
aS'0'
aS'0'
aS'0'
aS'0'
aS'0'
aS'0'
aS'0'
aS'1'
aS'0'
aS'0'
aS'0'
aS'0'
aS'0'
asI299
(lp6924
S'0'
aS'0'
aS'0'
aS'1'
aS'0'
aS'0'
aS'0'
aS'0'
aS'0'
aS'0'
aS'0'
aS'0'
aS'0'
aS'0'
aS'0'
asI301
(lp6925
S'0'
aS'0'
aS'0'
aS'0'
aS'0'
aS'0'
aS'0.796'
p6926
aS'0'
aS'0.204'
p6927
aS'0'
aS'0'
aS'0'
aS'0'
aS'0'
aS'0'
asI302
(lp6928
S'0'
aS'0'
aS'0'
aS'0'
aS'0'
aS'0'
aS'0'
aS'0'
aS'0'
aS'0'
aS'0'
aS'0'
aS'1'
aS'0'
aS'0'
asI303
(lp6929
S'0'
aS'0'
aS'0'
aS'0.502'
p6930
aS'0'
aS'0'
aS'0.498'
p6931
aS'0'
aS'0'
aS'0'
aS'0'
aS'0.254'
p6932
aS'0'
aS'0'
aS'0'
asI304
(lp6933
S'0'
aS'0'
aS'0'
aS'0'
aS'0'
aS'0'
aS'0'
aS'0'
aS'0'
aS'1'
aS'0'
aS'0'
aS'0'
aS'0'
aS'0'
asI307
(lp6934
S'0'
aS'0'
aS'0'
aS'0'
aS'0'
aS'0'
aS'1'
aS'0'
aS'0'
aS'0'
aS'0'
aS'0'
aS'0'
aS'0'
aS'0'
asI308
(lp6935
S'0'
aS'0'
aS'0'
aS'0.245'
p6936
aS'0'
aS'0'
aS'0.5'
p6937
aS'0'
aS'0.255'
p6938
aS'0'
aS'0'
aS'0'
aS'0.245'
p6939
aS'0'
aS'0'
asI309
(lp6940
S'0'
aS'0'
aS'0.206'
p6941
aS'0'
aS'0'
aS'0'
aS'0.186'
p6942
aS'0'
aS'0.608'
p6943
aS'0'
aS'0.412'
p6944
aS'0'
aS'0.196'
p6945
aS'0'
aS'0.608'
p6946
asI310
(lp6947
S'0'
aS'0'
aS'0'
aS'0'
aS'0'
aS'0'
aS'0.795'
p6948
aS'0'
aS'0.205'
p6949
aS'0'
aS'0'
aS'0'
aS'0'
aS'0'
aS'0'
asI311
(lp6950
S'0'
aS'0'
aS'0'
aS'0'
aS'0'
aS'0'
aS'0'
aS'0'
aS'0'
aS'0'
aS'0'
aS'1'
aS'0'
aS'0'
aS'0'
asI313
(lp6951
S'0'
aS'0'
aS'0'
aS'0'
aS'0'
aS'0'
aS'0.345'
p6952
aS'0'
aS'0'
aS'0'
aS'0.655'
p6953
aS'0'
aS'0'
aS'0'
aS'0'
asI314
(lp6954
S'0'
aS'0'
aS'0'
aS'0'
aS'0'
aS'0'
aS'0.825'
p6955
aS'0'
aS'0.175'
p6956
aS'0'
aS'0'
aS'0'
aS'0'
aS'0'
aS'0'
asI317
(lp6957
S'0'
aS'0.213'
p6958
aS'0'
aS'0'
aS'0'
aS'0'
aS'0'
aS'0'
aS'0.209'
p6959
aS'0'
aS'0'
aS'0'
aS'1'
aS'0'
aS'0'
asI318
(lp6960
S'0'
aS'0'
aS'0'
aS'0'
aS'0'
aS'0'
aS'0'
aS'0'
aS'0'
aS'1'
aS'0'
aS'0'
aS'0'
aS'0'
aS'0'
asI319
(lp6961
S'0'
aS'0'
aS'0'
aS'0'
aS'0'
aS'0'
aS'0.258'
p6962
aS'0'
aS'0'
aS'0'
aS'0'
aS'0.742'
p6963
aS'0'
aS'0'
aS'0'
asI321
(lp6964
S'0'
aS'0'
aS'0'
aS'1'
aS'0'
aS'0'
aS'0'
aS'0'
aS'0'
aS'0'
aS'0'
aS'0'
aS'0'
aS'0'
aS'0'
asI323
(lp6965
S'0'
aS'0'
aS'0'
aS'0'
aS'0'
aS'0'
aS'0'
aS'0'
aS'0'
aS'0'
aS'1'
aS'0'
aS'0'
aS'0'
aS'0'
asI325
(lp6966
S'0'
aS'0'
aS'0'
aS'0.399'
p6967
aS'0'
aS'0'
aS'0'
aS'0'
aS'0.198'
p6968
aS'0'
aS'0'
aS'0'
aS'1'
aS'0'
aS'0'
asI326
(lp6969
S'0'
aS'0'
aS'0'
aS'1'
aS'0'
aS'0'
aS'0'
aS'0'
aS'0'
aS'0'
aS'0'
aS'0'
aS'0'
aS'0'
aS'0'
asI328
(lp6970
S'0'
aS'0'
aS'0'
aS'0'
aS'0'
aS'0'
aS'0'
aS'0'
aS'0'
aS'1'
aS'0'
aS'0'
aS'1'
aS'0'
aS'0'
asI330
(lp6971
S'0'
aS'0.391'
p6972
aS'0'
aS'0'
aS'0'
aS'0'
aS'0'
aS'0'
aS'0'
aS'0'
aS'0'
aS'0'
aS'1'
aS'0'
aS'0'
asI331
(lp6973
S'0'
aS'0.205'
p6974
aS'0'
aS'0'
aS'0'
aS'0'
aS'0'
aS'0'
aS'0'
aS'0'
aS'0'
aS'0'
aS'1'
aS'0'
aS'0'
asI332
(lp6975
S'0'
aS'0.389'
p6976
aS'0'
aS'0'
aS'0.792'
p6977
aS'0'
aS'0.208'
p6978
aS'0'
aS'0.404'
p6979
aS'0'
aS'0'
aS'0'
aS'0'
aS'0'
aS'0.407'
p6980
asI333
(lp6981
S'0'
aS'0'
aS'0'
aS'1'
aS'0'
aS'0'
aS'0'
aS'0'
aS'0'
aS'0'
aS'0'
aS'0'
aS'0'
aS'0'
aS'0'
asI335
(lp6982
S'0'
aS'0'
aS'0'
aS'0'
aS'0'
aS'0'
aS'0.192'
p6983
aS'0'
aS'0.604'
p6984
aS'0.204'
p6985
aS'0'
aS'0'
aS'0'
aS'0'
aS'0'
asI337
(lp6986
S'0'
aS'0'
aS'0'
aS'0'
aS'0'
aS'0'
aS'0.799'
p6987
aS'0'
aS'0.201'
p6988
aS'0'
aS'0'
aS'0'
aS'0'
aS'0'
aS'0'
asI338
(lp6989
S'0'
aS'0'
aS'0'
aS'0'
aS'0'
aS'0'
aS'0'
aS'0'
aS'0'
aS'0'
aS'1'
aS'0'
aS'0'
aS'0'
aS'0'
asI339
(lp6990
S'0'
aS'0'
aS'0'
aS'0.174'
p6991
aS'0.826'
p6992
aS'0'
aS'0'
aS'0'
aS'0'
aS'0'
aS'0'
aS'0'
aS'0'
aS'0'
aS'1'
asI341
(lp6993
S'0'
aS'0'
aS'0'
aS'0'
aS'0'
aS'0'
aS'1'
aS'0'
aS'0'
aS'0'
aS'0'
aS'0'
aS'0'
aS'0'
aS'0'
asI342
(lp6994
S'0'
aS'0'
aS'0'
aS'0'
aS'0'
aS'0'
aS'1'
aS'0'
aS'0'
aS'0'
aS'0'
aS'0'
aS'0'
aS'0'
aS'0'
asI344
(lp6995
S'0'
aS'0'
aS'0'
aS'0'
aS'0'
aS'0'
aS'0'
aS'0'
aS'0'
aS'0'
aS'1'
aS'0'
aS'0'
aS'0'
aS'0'
asI347
(lp6996
S'0'
aS'0'
aS'0'
aS'0'
aS'0'
aS'0'
aS'0'
aS'0'
aS'0'
aS'1'
aS'0'
aS'0'
aS'0'
aS'0'
aS'0'
asI348
(lp6997
S'0'
aS'0'
aS'0'
aS'0'
aS'0'
aS'0'
aS'1'
aS'0'
aS'0'
aS'0'
aS'0'
aS'0'
aS'0'
aS'0'
aS'0'
asI349
(lp6998
S'0'
aS'1'
aS'0'
aS'0'
aS'0'
aS'0'
aS'0'
aS'0'
aS'0'
aS'1'
aS'0'
aS'0'
aS'0'
aS'0'
aS'0'
asI351
(lp6999
S'0'
aS'0'
aS'0'
aS'0.635'
p7000
aS'0'
aS'0'
aS'0.365'
p7001
aS'0'
aS'0'
aS'0'
aS'0'
aS'0'
aS'0.203'
p7002
aS'0'
aS'0'
asI353
(lp7003
S'0'
aS'0'
aS'0'
aS'0'
aS'0'
aS'0'
aS'0'
aS'0'
aS'0'
aS'0'
aS'0'
aS'1'
aS'0'
aS'0'
aS'0'
asI354
(lp7004
S'0'
aS'0'
aS'0'
aS'0'
aS'0'
aS'0'
aS'0.8'
p7005
aS'0'
aS'0.2'
p7006
aS'0'
aS'0'
aS'0'
aS'0'
aS'0'
aS'0'
asI355
(lp7007
S'0'
aS'0.188'
p7008
aS'0'
aS'0'
aS'0.602'
p7009
aS'0'
aS'0.211'
p7010
aS'0'
aS'0.211'
p7011
aS'0.196'
p7012
aS'0'
aS'0'
aS'0'
aS'0'
aS'0.602'
p7013
asI356
(lp7014
S'0'
aS'0'
aS'0'
aS'0'
aS'0'
aS'0'
aS'0'
aS'0'
aS'0'
aS'0'
aS'1'
aS'0'
aS'0'
aS'0'
aS'0'
asI358
(lp7015
S'0'
aS'0'
aS'0'
aS'0'
aS'0'
aS'0'
aS'0'
aS'0'
aS'0'
aS'1'
aS'0'
aS'0'
aS'0'
aS'0'
aS'0'
asI359
(lp7016
S'0'
aS'0'
aS'0'
aS'0.397'
p7017
aS'0'
aS'0'
aS'0.208'
p7018
aS'0'
aS'0'
aS'0'
aS'0'
aS'0'
aS'0.792'
p7019
aS'0'
aS'0.196'
p7020
asI360
(lp7021
S'0'
aS'0'
aS'0'
aS'0'
aS'0'
aS'0'
aS'0.75'
p7022
aS'0'
aS'0.25'
p7023
aS'0'
aS'0'
aS'0'
aS'0'
aS'0'
aS'0'
asI361
(lp7024
S'0'
aS'0'
aS'0'
aS'0'
aS'0'
aS'0'
aS'0'
aS'0'
aS'0'
aS'1'
aS'0'
aS'0'
aS'0'
aS'0'
aS'0'
asI364
(lp7025
S'0'
aS'0'
aS'0'
aS'0'
aS'0'
aS'0'
aS'1'
aS'0'
aS'0'
aS'0'
aS'0'
aS'0'
aS'0'
aS'0'
aS'0'
asI365
(lp7026
S'0'
aS'0'
aS'0'
aS'0'
aS'0'
aS'0'
aS'0'
aS'0'
aS'0'
aS'0'
aS'1'
aS'0'
aS'0'
aS'0'
aS'0'
asI367
(lp7027
S'0.201'
p7028
aS'0'
aS'0'
aS'0'
aS'0'
aS'0'
aS'0.195'
p7029
aS'0'
aS'0.604'
p7030
aS'0'
aS'0'
aS'0'
aS'0'
aS'0'
aS'0'
asI371
(lp7031
S'0'
aS'0'
aS'0'
aS'0.194'
p7032
aS'0'
aS'0'
aS'0'
aS'0'
aS'0.392'
p7033
aS'0'
aS'0'
aS'0'
aS'0'
aS'0'
aS'1'
asI372
(lp7034
S'0'
aS'0'
aS'0'
aS'0'
aS'0'
aS'0'
aS'0'
aS'0'
aS'0'
aS'0'
aS'0'
aS'0'
aS'1'
aS'0'
aS'0'
asI373
(lp7035
S'0'
aS'0'
aS'0'
aS'0'
aS'0'
aS'0'
aS'0'
aS'0'
aS'0'
aS'0'
aS'0'
aS'1'
aS'0'
aS'0'
aS'0'
asI375
(lp7036
S'0'
aS'0'
aS'0'
aS'0'
aS'0'
aS'0'
aS'1'
aS'0'
aS'0'
aS'0'
aS'0'
aS'0'
aS'0'
aS'0'
aS'0'
asI376
(lp7037
S'0'
aS'0'
aS'0'
aS'0'
aS'0'
aS'0'
aS'1'
aS'0'
aS'0'
aS'0'
aS'0'
aS'0'
aS'0'
aS'0'
aS'0'
asI378
(lp7038
S'0'
aS'0'
aS'0'
aS'0'
aS'0'
aS'0'
aS'1'
aS'0'
aS'0'
aS'0'
aS'0'
aS'0'
aS'0'
aS'0'
aS'0'
asI379
(lp7039
S'0'
aS'0'
aS'0'
aS'0'
aS'0'
aS'0'
aS'0'
aS'0'
aS'0'
aS'0'
aS'0'
aS'0'
aS'0'
aS'0'
aS'1'
asI380
(lp7040
S'0'
aS'0'
aS'0'
aS'0'
aS'0'
aS'0'
aS'0'
aS'0'
aS'0'
aS'0.607'
p7041
aS'0'
aS'0'
aS'0.599'
p7042
aS'0'
aS'0'
asI382
(lp7043
S'0.207'
p7044
aS'0'
aS'0'
aS'0'
aS'0'
aS'0'
aS'0'
aS'0'
aS'0'
aS'0.207'
p7045
aS'0'
aS'1'
aS'0'
aS'0'
aS'0'
asI383
(lp7046
S'0'
aS'0.255'
p7047
aS'0'
aS'0'
aS'0'
aS'0'
aS'0'
aS'0'
aS'0'
aS'0'
aS'1'
aS'0'
aS'0'
aS'0'
aS'0'
asI384
(lp7048
S'0'
aS'0'
aS'0'
aS'0'
aS'0'
aS'0'
aS'1'
aS'0'
aS'0'
aS'0'
aS'0'
aS'0'
aS'0'
aS'0'
aS'0'
asI387
(lp7049
S'0'
aS'0.207'
p7050
aS'0'
aS'0.207'
p7051
aS'0'
aS'0'
aS'0.391'
p7052
aS'0'
aS'0.403'
p7053
aS'0'
aS'0'
aS'0'
aS'0'
aS'0'
aS'0'
asI388
(lp7054
S'0'
aS'0.212'
p7055
aS'0'
aS'0'
aS'0'
aS'0'
aS'0.407'
p7056
aS'0'
aS'0.212'
p7057
aS'0'
aS'0'
aS'0'
aS'0.169'
p7058
aS'0'
aS'0'
asI389
(lp7059
S'0'
aS'0'
aS'0.204'
p7060
aS'0'
aS'0'
aS'0'
aS'0.796'
p7061
aS'0'
aS'0'
aS'0'
aS'0'
aS'0'
aS'0'
aS'0'
aS'0'
asI390
(lp7062
S'0'
aS'0'
aS'0'
aS'0'
aS'0'
aS'0'
aS'0'
aS'0'
aS'0'
aS'0'
aS'0'
aS'1'
aS'0'
aS'0'
aS'0'
asI393
(lp7063
S'0'
aS'0'
aS'0'
aS'0'
aS'0'
aS'0'
aS'1'
aS'0'
aS'0'
aS'0'
aS'0'
aS'0'
aS'0'
aS'0'
aS'0'
asI394
(lp7064
S'0'
aS'0'
aS'0'
aS'0'
aS'0'
aS'0'
aS'0'
aS'0'
aS'0.495'
p7065
aS'0'
aS'0'
aS'0'
aS'1'
aS'0'
aS'0'
asI398
(lp7066
S'0'
aS'0'
aS'0'
aS'0'
aS'0'
aS'0'
aS'0.594'
p7067
aS'0'
aS'0.406'
p7068
aS'0'
aS'0'
aS'0'
aS'0'
aS'0'
aS'0'
asI399
(lp7069
S'0'
aS'0'
aS'0'
aS'0'
aS'0'
aS'0'
aS'1'
aS'0'
aS'0'
aS'0'
aS'0'
aS'0'
aS'0'
aS'0'
aS'0'
asI401
(lp7070
S'0'
aS'1'
aS'0'
aS'0'
aS'0'
aS'0'
aS'0'
aS'0'
aS'0'
aS'0'
aS'0'
aS'0'
aS'0'
aS'0'
aS'0'
asI402
(lp7071
S'0'
aS'0'
aS'0'
aS'0'
aS'0'
aS'0'
aS'0'
aS'0'
aS'0'
aS'0'
aS'0'
aS'0'
aS'1'
aS'0'
aS'0'
asI404
(lp7072
S'0'
aS'0'
aS'0'
aS'0'
aS'0'
aS'0'
aS'0'
aS'0'
aS'0'
aS'0'
aS'0'
aS'0.372'
p7073
aS'0'
aS'0.815'
p7074
aS'0'
asI406
(lp7075
S'0'
aS'0'
aS'0'
aS'0'
aS'0'
aS'0'
aS'1'
aS'0'
aS'0'
aS'0'
aS'0'
aS'0'
aS'0'
aS'0'
aS'0'
asI408
(lp7076
S'0'
aS'0'
aS'0'
aS'1'
aS'0'
aS'0'
aS'0'
aS'0'
aS'0'
aS'0'
aS'0'
aS'0'
aS'0'
aS'0'
aS'0'
asI410
(lp7077
S'0'
aS'0'
aS'0'
aS'0'
aS'0'
aS'0'
aS'1'
aS'0'
aS'0'
aS'0'
aS'0'
aS'0'
aS'0'
aS'0'
aS'0'
asI412
(lp7078
S'0'
aS'1'
aS'0'
aS'0'
aS'0'
aS'0'
aS'0'
aS'0'
aS'0'
aS'0'
aS'0'
aS'0'
aS'0'
aS'0'
aS'0'
asI413
(lp7079
S'0'
aS'0'
aS'0'
aS'0'
aS'0'
aS'0'
aS'1'
aS'0'
aS'0'
aS'0'
aS'0'
aS'0'
aS'0'
aS'0'
aS'0'
asI414
(lp7080
S'0'
aS'0'
aS'0'
aS'0'
aS'0.179'
p7081
aS'0'
aS'0.821'
p7082
aS'0'
aS'0'
aS'0'
aS'0'
aS'0'
aS'0'
aS'0'
aS'0'
asI415
(lp7083
S'0'
aS'0'
aS'0'
aS'0'
aS'0'
aS'0'
aS'1'
aS'0'
aS'0'
aS'0'
aS'0'
aS'0'
aS'0'
aS'0'
aS'0'
asI416
(lp7084
S'0'
aS'0'
aS'0'
aS'0'
aS'0'
aS'0'
aS'0'
aS'0'
aS'0'
aS'0'
aS'0'
aS'0'
aS'0'
aS'0'
aS'1'
asI417
(lp7085
S'0'
aS'0'
aS'0'
aS'1'
aS'0'
aS'0'
aS'0'
aS'0'
aS'0'
aS'0'
aS'0'
aS'0'
aS'0.174'
p7086
aS'0'
aS'0'
asI418
(lp7087
S'0'
aS'1'
aS'0'
aS'0'
aS'0'
aS'0'
aS'0'
aS'0'
aS'0'
aS'0'
aS'0'
aS'0'
aS'0'
aS'0'
aS'0'
asI422
(lp7088
S'0'
aS'0'
aS'0'
aS'0.623'
p7089
aS'0'
aS'0'
aS'0.377'
p7090
aS'0'
aS'0'
aS'0'
aS'0'
aS'0'
aS'0'
aS'0'
aS'0'
asI423
(lp7091
S'0'
aS'0'
aS'0'
aS'0'
aS'0'
aS'0'
aS'0'
aS'0'
aS'0'
aS'0'
aS'0'
aS'0.597'
p7092
aS'0'
aS'0.607'
p7093
aS'0'
asI424
(lp7094
S'0'
aS'0'
aS'0'
aS'0'
aS'0'
aS'0'
aS'0.592'
p7095
aS'0'
aS'0.408'
p7096
aS'0'
aS'0'
aS'0'
aS'0'
aS'0'
aS'0'
asI425
(lp7097
S'0.319'
p7098
aS'0'
aS'0'
aS'0'
aS'0'
aS'0'
aS'0'
aS'0'
aS'0'
aS'0.664'
p7099
aS'0'
aS'1'
aS'0'
aS'0'
aS'0.319'
p7100
asI427
(lp7101
S'0.602'
p7102
aS'0.398'
p7103
aS'0'
aS'0'
aS'0'
aS'0'
aS'0'
aS'0'
aS'0.199'
p7104
aS'0.801'
p7105
aS'0'
aS'0'
aS'0'
aS'0'
aS'0'
asI428
(lp7106
S'1'
aS'0'
aS'0'
aS'0'
aS'0'
aS'0'
aS'0'
aS'0'
aS'0'
aS'0'
aS'0'
aS'0'
aS'0'
aS'0'
aS'0'
asI429
(lp7107
S'0'
aS'0'
aS'0'
aS'1'
aS'0'
aS'0'
aS'0'
aS'0'
aS'0'
aS'0'
aS'0'
aS'0'
aS'0'
aS'0'
aS'0'
asI432
(lp7108
S'0'
aS'0'
aS'0'
aS'1'
aS'0'
aS'0'
aS'0'
aS'0'
aS'0'
aS'0'
aS'0'
aS'0'
aS'0'
aS'0'
aS'0'
asI434
(lp7109
S'0.786'
p7110
aS'0'
aS'0'
aS'0'
aS'0'
aS'0'
aS'0'
aS'0'
aS'0'
aS'0.807'
p7111
aS'0'
aS'0'
aS'0.786'
p7112
aS'0'
aS'0'
asI437
(lp7113
S'0'
aS'0'
aS'0'
aS'0.818'
p7114
aS'0'
aS'0'
aS'0.182'
p7115
aS'0'
aS'0'
aS'0'
aS'0'
aS'0'
aS'0'
aS'0'
aS'0'
asI438
(lp7116
S'0'
aS'0'
aS'0.173'
p7117
aS'0'
aS'0.51'
p7118
aS'0'
aS'0.156'
p7119
aS'0'
aS'0.16'
p7120
aS'0'
aS'0'
aS'0'
aS'0'
aS'0'
aS'0'
asI439
(lp7121
S'0'
aS'0'
aS'0'
aS'0'
aS'0'
aS'0'
aS'0'
aS'0'
aS'0'
aS'1'
aS'0'
aS'0'
aS'0'
aS'0'
aS'0'
asI440
(lp7122
S'0.343'
p7123
aS'0.657'
p7124
aS'0'
aS'0'
aS'0'
aS'0'
aS'0'
aS'0'
aS'0.341'
p7125
aS'0'
aS'0'
aS'0'
aS'0'
aS'0'
aS'0'
asI442
(lp7126
S'0'
aS'0'
aS'0'
aS'0'
aS'0'
aS'0'
aS'1'
aS'0'
aS'0'
aS'0'
aS'0'
aS'0'
aS'0'
aS'0'
aS'0'
asI443
(lp7127
S'0'
aS'1'
aS'0'
aS'0'
aS'0'
aS'0'
aS'0'
aS'0'
aS'0'
aS'0'
aS'0'
aS'0'
aS'0'
aS'0'
aS'0'
asI444
(lp7128
S'0'
aS'1'
aS'0'
aS'0'
aS'0'
aS'0'
aS'0'
aS'0'
aS'0'
aS'0'
aS'0'
aS'0'
aS'0'
aS'0'
aS'0'
asI446
(lp7129
S'0'
aS'0'
aS'0'
aS'0'
aS'0'
aS'0'
aS'0'
aS'0'
aS'0'
aS'0'
aS'0'
aS'1'
aS'0'
aS'0'
aS'0'
asI447
(lp7130
S'1'
aS'0'
aS'0'
aS'0'
aS'0'
aS'0'
aS'0'
aS'0'
aS'0'
aS'0'
aS'0'
aS'0'
aS'0'
aS'0'
aS'0'
asI448
(lp7131
S'0'
aS'0.2'
p7132
aS'0'
aS'0'
aS'0'
aS'0'
aS'0'
aS'0'
aS'0.404'
p7133
aS'0.2'
p7134
aS'0'
aS'0'
aS'0.392'
p7135
aS'0'
aS'0.8'
p7136
asI450
(lp7137
S'0'
aS'0'
aS'0'
aS'0'
aS'0'
aS'0'
aS'1'
aS'0'
aS'0'
aS'0'
aS'0'
aS'0'
aS'0'
aS'0'
aS'0'
asI452
(lp7138
S'0.6'
p7139
aS'0'
aS'0'
aS'0'
aS'0'
aS'0'
aS'0'
aS'0'
aS'0'
aS'0'
aS'0'
aS'0.8'
p7140
aS'0'
aS'0'
aS'0'
asI453
(lp7141
S'0'
aS'0'
aS'0'
aS'0'
aS'0'
aS'0'
aS'0'
aS'0'
aS'0'
aS'0'
aS'0'
aS'1'
aS'0'
aS'0'
aS'0'
asI454
(lp7142
S'0'
aS'0'
aS'0.509'
p7143
aS'0'
aS'0'
aS'0'
aS'0'
aS'0'
aS'0'
aS'0.491'
p7144
aS'0'
aS'0'
aS'1'
aS'0'
aS'0'
asI455
(lp7145
S'0'
aS'0.8'
p7146
aS'0'
aS'0'
aS'0'
aS'0'
aS'0.2'
p7147
aS'0'
aS'0'
aS'0'
aS'0'
aS'0'
aS'0'
aS'0'
aS'0'
asI456
(lp7148
S'0'
aS'0'
aS'0'
aS'0'
aS'0'
aS'0'
aS'0.788'
p7149
aS'0'
aS'0.212'
p7150
aS'0'
aS'0'
aS'0'
aS'0'
aS'0'
aS'0'
asI457
(lp7151
S'0'
aS'0'
aS'0'
aS'0'
aS'0'
aS'0'
aS'1'
aS'0'
aS'0'
aS'0'
aS'0'
aS'0'
aS'0'
aS'0'
aS'0'
asI458
(lp7152
S'0'
aS'1'
aS'0'
aS'0'
aS'0'
aS'0'
aS'0'
aS'0.206'
p7153
aS'0'
aS'0'
aS'0'
aS'0'
aS'0'
aS'0'
aS'0.206'
p7154
asI459
(lp7155
S'0'
aS'1'
aS'0'
aS'0'
aS'0'
aS'0'
aS'0'
aS'0'
aS'0'
aS'0'
aS'0'
aS'0'
aS'0'
aS'0'
aS'0'
asI462
(lp7156
S'0'
aS'0.795'
p7157
aS'0'
aS'0'
aS'0'
aS'0'
aS'0'
aS'0'
aS'0.199'
p7158
aS'1'
aS'0'
aS'0'
aS'0'
aS'0'
aS'0'
asI464
(lp7159
S'0'
aS'0'
aS'0'
aS'0'
aS'0'
aS'0'
aS'0'
aS'0'
aS'0'
aS'1'
aS'0'
aS'0'
aS'0'
aS'0'
aS'0'
asI465
(lp7160
S'0'
aS'0'
aS'0'
aS'0'
aS'0'
aS'0'
aS'0'
aS'0'
aS'0'
aS'0'
aS'0'
aS'0.798'
p7161
aS'1'
aS'0'
aS'0'
asI466
(lp7162
S'0'
aS'0'
aS'0'
aS'0'
aS'0'
aS'0'
aS'1'
aS'0'
aS'0'
aS'0'
aS'0'
aS'0'
aS'0'
aS'0'
aS'0'
asI467
(lp7163
S'0'
aS'0'
aS'0'
aS'0'
aS'0'
aS'0'
aS'1'
aS'0'
aS'0'
aS'0'
aS'0'
aS'0'
aS'0'
aS'0'
aS'0'
asI469
(lp7164
S'0'
aS'0'
aS'0'
aS'0'
aS'0'
aS'0'
aS'0'
aS'0'
aS'0'
aS'0'
aS'0'
aS'1'
aS'0'
aS'0'
aS'0'
asI470
(lp7165
S'0'
aS'0'
aS'0'
aS'0.403'
p7166
aS'0'
aS'0'
aS'0.597'
p7167
aS'0'
aS'0'
aS'0'
aS'0'
aS'0'
aS'0'
aS'0'
aS'0'
asI472
(lp7168
S'0'
aS'0'
aS'0'
aS'0'
aS'0'
aS'0'
aS'0.807'
p7169
aS'0'
aS'0'
aS'0'
aS'0'
aS'0'
aS'0.193'
p7170
aS'0'
aS'0'
asI473
(lp7171
S'0'
aS'0'
aS'0'
aS'0'
aS'0'
aS'0'
aS'0'
aS'0'
aS'0'
aS'0'
aS'0'
aS'1'
aS'0'
aS'0'
aS'0'
asI474
(lp7172
S'0'
aS'0'
aS'0'
aS'0'
aS'0'
aS'0'
aS'0.608'
p7173
aS'0'
aS'0.392'
p7174
aS'0'
aS'0'
aS'0'
aS'0'
aS'0'
aS'0'
asI476
(lp7175
S'0'
aS'0'
aS'0'
aS'0'
aS'0'
aS'0'
aS'0'
aS'0'
aS'0'
aS'0'
aS'0'
aS'1'
aS'0'
aS'0'
aS'0'
asI477
(lp7176
S'0'
aS'0'
aS'0'
aS'0'
aS'0'
aS'0'
aS'0'
aS'0'
aS'0'
aS'1'
aS'0'
aS'0'
aS'0'
aS'0'
aS'0'
asI478
(lp7177
S'0'
aS'0'
aS'0'
aS'0.599'
p7178
aS'0'
aS'0'
aS'0.196'
p7179
aS'0'
aS'0.204'
p7180
aS'0'
aS'0'
aS'0'
aS'0'
aS'0'
aS'0'
asI479
(lp7181
S'0'
aS'0'
aS'0'
aS'0'
aS'0'
aS'0'
aS'0.801'
p7182
aS'0'
aS'0.199'
p7183
aS'0'
aS'0'
aS'0'
aS'0'
aS'0'
aS'0'
asI480
(lp7184
S'0'
aS'0'
aS'0'
aS'0'
aS'0'
aS'0'
aS'0'
aS'0'
aS'0'
aS'0'
aS'0'
aS'1'
aS'0'
aS'0'
aS'0'
asI483
(lp7185
S'0'
aS'0'
aS'0'
aS'0'
aS'0'
aS'0'
aS'1'
aS'0'
aS'0'
aS'0'
aS'0'
aS'0'
aS'0'
aS'0'
aS'0'
asI486
(lp7186
S'0'
aS'0'
aS'0'
aS'0'
aS'0'
aS'0'
aS'1'
aS'0'
aS'0'
aS'0'
aS'0'
aS'0'
aS'0'
aS'0'
aS'0'
asI487
(lp7187
S'0'
aS'0'
aS'0'
aS'1'
aS'0'
aS'0'
aS'0'
aS'0'
aS'0'
aS'0'
aS'0'
aS'0'
aS'0'
aS'0'
aS'0'
asI488
(lp7188
S'0'
aS'0'
aS'0'
aS'0'
aS'0'
aS'0'
aS'0'
aS'0'
aS'0'
aS'0'
aS'0'
aS'0'
aS'1'
aS'0'
aS'0'
asI489
(lp7189
S'0'
aS'0'
aS'0'
aS'0'
aS'0.181'
p7190
aS'0'
aS'0.619'
p7191
aS'0'
aS'0.2'
p7192
aS'0'
aS'0'
aS'0'
aS'0'
aS'0'
aS'0'
asI491
(lp7193
S'0'
aS'0.179'
p7194
aS'0.179'
p7195
aS'0'
aS'0.38'
p7196
aS'0'
aS'0.211'
p7197
aS'0'
aS'0.409'
p7198
aS'0'
aS'0'
aS'0'
aS'0'
aS'0'
aS'0.38'
p7199
asI494
(lp7200
S'0'
aS'1'
aS'0'
aS'0'
aS'0'
aS'0'
aS'0'
aS'0'
aS'0'
aS'0'
aS'0'
aS'0'
aS'0'
aS'0'
aS'0'
asI495
(lp7201
S'0'
aS'0'
aS'0'
aS'0'
aS'0'
aS'0'
aS'1'
aS'0'
aS'0'
aS'0'
aS'0'
aS'0'
aS'0'
aS'0'
aS'0'
asI496
(lp7202
S'0'
aS'0'
aS'0'
aS'0'
aS'0'
aS'0'
aS'0.4'
p7203
aS'0'
aS'0.193'
p7204
aS'0.407'
p7205
aS'0.407'
p7206
aS'0'
aS'0.407'
p7207
aS'0'
aS'0'
asI498
(lp7208
S'0'
aS'0'
aS'0'
aS'0'
aS'0'
aS'0'
aS'0.785'
p7209
aS'0'
aS'0'
aS'0'
aS'0'
aS'0.215'
p7210
aS'0'
aS'0'
aS'0'
asI499
(lp7211
S'0'
aS'0'
aS'0'
aS'0'
aS'0'
aS'0'
aS'0'
aS'0'
aS'0'
aS'0'
aS'0'
aS'0'
aS'1'
aS'0'
aS'0'
asI500
(lp7212
S'0'
aS'0'
aS'0'
aS'0'
aS'0'
aS'0'
aS'0'
aS'0'
aS'0'
aS'0.754'
p7213
aS'0'
aS'0'
aS'0.494'
p7214
aS'0'
aS'0'
asI501
(lp7215
S'0'
aS'0'
aS'0'
aS'0'
aS'0'
aS'0'
aS'0'
aS'0'
aS'0'
aS'1'
aS'0'
aS'0'
aS'0'
aS'0'
aS'0'
asI502
(lp7216
S'0'
aS'0'
aS'0'
aS'0'
aS'0'
aS'0'
aS'0.84'
p7217
aS'0'
aS'0.16'
p7218
aS'0'
aS'0'
aS'0'
aS'0'
aS'0'
aS'0'
asI504
(lp7219
S'0'
aS'0'
aS'0'
aS'0'
aS'0'
aS'0'
aS'0'
aS'0'
aS'0.18'
p7220
aS'1'
aS'0'
aS'0'
aS'0'
aS'0'
aS'0.79'
p7221
asI505
(lp7222
S'0'
aS'0'
aS'0'
aS'0'
aS'0'
aS'0'
aS'1'
aS'0'
aS'0'
aS'0'
aS'0'
aS'0'
aS'0'
aS'0'
aS'0'
asI506
(lp7223
S'0'
aS'0'
aS'0'
aS'0'
aS'0'
aS'0'
aS'0'
aS'0'
aS'0'
aS'0'
aS'0'
aS'0'
aS'1'
aS'0'
aS'0'
asI507
(lp7224
S'0'
aS'0'
aS'0'
aS'0'
aS'0'
aS'0'
aS'1'
aS'0'
aS'0'
aS'0'
aS'0'
aS'0'
aS'0'
aS'0'
aS'0'
asI508
(lp7225
S'0'
aS'0.602'
p7226
aS'0'
aS'0'
aS'0'
aS'0'
aS'0.398'
p7227
aS'0'
aS'0'
aS'0'
aS'0'
aS'0'
aS'0'
aS'0'
aS'0'
asI509
(lp7228
S'0'
aS'0'
aS'0'
aS'0'
aS'0'
aS'0'
aS'1'
aS'0'
aS'0'
aS'0'
aS'0'
aS'0'
aS'0'
aS'0'
aS'0'
asI511
(lp7229
S'0'
aS'0'
aS'0'
aS'0'
aS'0'
aS'0'
aS'1'
aS'0'
aS'0'
aS'0'
aS'0'
aS'0'
aS'0'
aS'0'
aS'0'
asI513
(lp7230
S'0'
aS'0'
aS'0'
aS'0'
aS'0'
aS'0'
aS'0'
aS'0'
aS'0'
aS'0'
aS'0'
aS'1'
aS'0'
aS'0'
aS'0'
asI514
(lp7231
S'0'
aS'0'
aS'0'
aS'0'
aS'0'
aS'0'
aS'0'
aS'0'
aS'0'
aS'0'
aS'0'
aS'0.799'
p7232
aS'0'
aS'0.201'
p7233
aS'0'
asI515
(lp7234
S'1'
aS'0'
aS'0'
aS'0'
aS'0'
aS'0'
aS'0'
aS'0'
aS'0'
aS'0'
aS'0'
aS'0'
aS'0'
aS'0'
aS'0'
asI516
(lp7235
S'0'
aS'0'
aS'0'
aS'0.191'
p7236
aS'0'
aS'0'
aS'0.809'
p7237
aS'0'
aS'0'
aS'0'
aS'0'
aS'0'
aS'0'
aS'0'
aS'0'
asI519
(lp7238
S'0'
aS'0.31'
p7239
aS'0'
aS'0'
aS'0'
aS'0'
aS'0'
aS'0'
aS'0'
aS'0.854'
p7240
aS'0'
aS'0'
aS'0'
aS'0'
aS'0'
asI521
(lp7241
S'0'
aS'0'
aS'0'
aS'0'
aS'0'
aS'0'
aS'0'
aS'0'
aS'0'
aS'0'
aS'0'
aS'1'
aS'0'
aS'0'
aS'0'
asI524
(lp7242
S'0'
aS'0'
aS'0'
aS'0'
aS'0'
aS'0'
aS'0'
aS'0'
aS'0'
aS'0'
aS'0'
aS'1'
aS'0'
aS'0'
aS'0'
asI525
(lp7243
S'0'
aS'0.395'
p7244
aS'0'
aS'0'
aS'0'
aS'0'
aS'0.605'
p7245
aS'0'
aS'0'
aS'0'
aS'0'
aS'0'
aS'0'
aS'0'
aS'0'
asI527
(lp7246
S'0'
aS'0'
aS'0'
aS'0'
aS'0'
aS'0'
aS'0'
aS'0'
aS'0'
aS'0'
aS'0'
aS'1'
aS'0'
aS'0'
aS'0'
asI529
(lp7247
S'0'
aS'0'
aS'0'
aS'0'
aS'0'
aS'0'
aS'0'
aS'0'
aS'0'
aS'0'
aS'0'
aS'0.199'
p7248
aS'0'
aS'1'
aS'0'
asI530
(lp7249
S'0'
aS'0'
aS'0'
aS'0.399'
p7250
aS'0'
aS'0'
aS'0'
aS'0'
aS'0'
aS'0.404'
p7251
aS'0'
aS'0'
aS'1'
aS'0'
aS'0'
asI531
(lp7252
S'0'
aS'0'
aS'0'
aS'0'
aS'0'
aS'0'
aS'1'
aS'0'
aS'0'
aS'0'
aS'0'
aS'0'
aS'0'
aS'0'
aS'0'
asI532
(lp7253
S'0'
aS'0'
aS'0'
aS'0'
aS'0'
aS'0'
aS'1'
aS'0'
aS'0'
aS'0'
aS'0'
aS'0'
aS'0'
aS'0'
aS'0'
asI533
(lp7254
S'0'
aS'0'
aS'0'
aS'0'
aS'0'
aS'0'
aS'0.224'
p7255
aS'0'
aS'0'
aS'0'
aS'0'
aS'0.776'
p7256
aS'0'
aS'0'
aS'0'
asI534
(lp7257
S'0'
aS'0'
aS'0'
aS'0'
aS'0'
aS'0'
aS'0'
aS'0'
aS'0'
aS'1'
aS'0'
aS'0'
aS'0'
aS'0'
aS'0'
asI535
(lp7258
S'0'
aS'0'
aS'0'
aS'0'
aS'0'
aS'0'
aS'0'
aS'0'
aS'0'
aS'0'
aS'1'
aS'0'
aS'0'
aS'0'
aS'0'
asI537
(lp7259
S'0'
aS'0'
aS'0'
aS'0'
aS'0'
aS'0'
aS'0'
aS'0'
aS'0'
aS'0'
aS'0'
aS'1'
aS'0'
aS'0'
aS'0'
asI538
(lp7260
S'0'
aS'0'
aS'0'
aS'0'
aS'0'
aS'0'
aS'0'
aS'0'
aS'0'
aS'1'
aS'0'
aS'0'
aS'0'
aS'0'
aS'0'
asI539
(lp7261
S'0'
aS'1'
aS'0'
aS'0'
aS'0'
aS'0'
aS'0'
aS'0'
aS'0'
aS'0.197'
p7262
aS'0'
aS'0'
aS'0'
aS'0'
aS'0'
asI542
(lp7263
S'0.406'
p7264
aS'0'
aS'0'
aS'0'
aS'0'
aS'0'
aS'0.204'
p7265
aS'0'
aS'0'
aS'0'
aS'0'
aS'0.587'
p7266
aS'0'
aS'0'
aS'0'
asI544
(lp7267
S'0'
aS'0'
aS'0'
aS'1'
aS'0'
aS'0'
aS'0'
aS'0'
aS'0'
aS'0'
aS'0'
aS'0'
aS'0'
aS'0'
aS'0'
asI545
(lp7268
S'0'
aS'0'
aS'0'
aS'0'
aS'0'
aS'0'
aS'0'
aS'0'
aS'0'
aS'0'
aS'0'
aS'0'
aS'1'
aS'0'
aS'0'
asI546
(lp7269
S'0'
aS'0'
aS'0'
aS'0'
aS'0'
aS'0'
aS'1'
aS'0'
aS'0'
aS'0'
aS'0'
aS'0'
aS'0'
aS'0'
aS'0'
asI548
(lp7270
S'0'
aS'0'
aS'0'
aS'0'
aS'0'
aS'0'
aS'1'
aS'0'
aS'0'
aS'0'
aS'0'
aS'0'
aS'0'
aS'0'
aS'0'
asI549
(lp7271
S'0'
aS'0'
aS'0'
aS'0'
aS'0'
aS'0'
aS'0'
aS'0'
aS'0'
aS'0'
aS'0'
aS'1'
aS'0'
aS'0'
aS'0'
asI551
(lp7272
S'0'
aS'0.173'
p7273
aS'0'
aS'0'
aS'0'
aS'0'
aS'0'
aS'1'
aS'0'
aS'0'
aS'0'
aS'0'
aS'0'
aS'0'
aS'0'
asI554
(lp7274
S'0'
aS'0'
aS'0'
aS'0.402'
p7275
aS'0'
aS'0'
aS'0'
aS'0'
aS'0'
aS'0'
aS'0'
aS'0'
aS'1'
aS'0'
aS'0'
asI555
(lp7276
S'0'
aS'0'
aS'0'
aS'0.21'
p7277
aS'0'
aS'0'
aS'0'
aS'0'
aS'0'
aS'0'
aS'0'
aS'0'
aS'1'
aS'0'
aS'0'
asI557
(lp7278
S'0'
aS'0'
aS'0'
aS'0'
aS'1'
aS'0'
aS'0'
aS'0'
aS'0'
aS'0.205'
p7279
aS'0'
aS'0'
aS'0'
aS'0'
aS'0.588'
p7280
asI558
(lp7281
S'0'
aS'0'
aS'0'
aS'0'
aS'0'
aS'0'
aS'0'
aS'0'
aS'0'
aS'0'
aS'0'
aS'1'
aS'0'
aS'0'
aS'0'
asI559
(lp7282
S'0'
aS'0'
aS'0'
aS'0'
aS'0'
aS'0'
aS'0'
aS'0'
aS'0'
aS'1'
aS'0'
aS'0'
aS'0'
aS'0'
aS'0'
asI560
(lp7283
S'0'
aS'0'
aS'0'
aS'0'
aS'0'
aS'0'
aS'0.256'
p7284
aS'0'
aS'0'
aS'0'
aS'0'
aS'0.744'
p7285
aS'0'
aS'0.246'
p7286
aS'0'
asI561
(lp7287
S'0'
aS'0'
aS'0'
aS'0'
aS'0'
aS'0'
aS'0.602'
p7288
aS'0'
aS'0.398'
p7289
aS'0'
aS'0'
aS'0'
aS'0'
aS'0'
aS'0'
asI563
(lp7290
S'0'
aS'0'
aS'0'
aS'0'
aS'0'
aS'0'
aS'0.793'
p7291
aS'0'
aS'0.2'
p7292
aS'0'
aS'0'
aS'0'
aS'0.207'
p7293
aS'0'
aS'0'
asI564
(lp7294
S'0'
aS'0'
aS'0'
aS'0'
aS'0'
aS'0'
aS'0.602'
p7295
aS'0'
aS'0.197'
p7296
aS'0'
aS'0'
aS'0.201'
p7297
aS'0'
aS'0'
aS'0'
asI565
(lp7298
S'0'
aS'0'
aS'0'
aS'1'
aS'0'
aS'0'
aS'0'
aS'0'
aS'0'
aS'0'
aS'0'
aS'0'
aS'0'
aS'0'
aS'0'
asI566
(lp7299
S'0'
aS'0'
aS'0'
aS'0'
aS'0'
aS'0'
aS'0'
aS'0'
aS'0.204'
p7300
aS'1'
aS'0'
aS'0.413'
p7301
aS'0'
aS'0'
aS'0'
asI567
(lp7302
S'0'
aS'0'
aS'0'
aS'0'
aS'0'
aS'0'
aS'0'
aS'0'
aS'0'
aS'0'
aS'0'
aS'0'
aS'1'
aS'0'
aS'0'
asI569
(lp7303
S'0'
aS'0'
aS'0'
aS'0'
aS'0'
aS'0'
aS'0'
aS'0'
aS'0.507'
p7304
aS'0'
aS'1'
aS'0'
aS'0'
aS'0'
aS'0'
asI571
(lp7305
S'0'
aS'0'
aS'0'
aS'0'
aS'0'
aS'0'
aS'0'
aS'0'
aS'0'
aS'0'
aS'0'
aS'0'
aS'1'
aS'0'
aS'0'
asI572
(lp7306
S'0'
aS'0'
aS'0'
aS'1'
aS'0'
aS'0'
aS'0'
aS'0'
aS'0'
aS'0'
aS'0'
aS'0'
aS'0'
aS'0'
aS'0'
asI573
(lp7307
S'0'
aS'0'
aS'0'
aS'0'
aS'0'
aS'0'
aS'0'
aS'0'
aS'0'
aS'0.797'
p7308
aS'0'
aS'0'
aS'0.786'
p7309
aS'0'
aS'0'
asI575
(lp7310
S'0'
aS'0'
aS'0'
aS'0'
aS'0'
aS'0'
aS'0'
aS'0'
aS'0.185'
p7311
aS'0'
aS'0'
aS'0.815'
p7312
aS'0'
aS'0'
aS'0'
asI576
(lp7313
S'0'
aS'1'
aS'0'
aS'0'
aS'0'
aS'0'
aS'0'
aS'1'
aS'0'
aS'0'
aS'0'
aS'0'
aS'0'
aS'0'
aS'0'
asI578
(lp7314
S'0'
aS'0'
aS'0'
aS'0'
aS'0'
aS'0'
aS'0'
aS'0'
aS'0.168'
p7315
aS'0'
aS'0'
aS'0'
aS'0.832'
p7316
aS'0'
aS'0'
asI579
(lp7317
S'0'
aS'0'
aS'0'
aS'1'
aS'0'
aS'0'
aS'0'
aS'0'
aS'0.189'
p7318
aS'0'
aS'0'
aS'0'
aS'0'
aS'0'
aS'0'
asI580
(lp7319
S'0'
aS'0'
aS'0'
aS'1'
aS'0'
aS'0'
aS'0'
aS'0'
aS'0'
aS'0'
aS'0'
aS'0'
aS'0'
aS'0'
aS'0'
asI582
(lp7320
S'0'
aS'0'
aS'0'
aS'0'
aS'0'
aS'0'
aS'0'
aS'0'
aS'0'
aS'0'
aS'0'
aS'1'
aS'0'
aS'0'
aS'0'
asI583
(lp7321
S'0'
aS'0'
aS'0'
aS'0.201'
p7322
aS'0'
aS'0'
aS'0.203'
p7323
aS'0'
aS'0'
aS'0.596'
p7324
aS'0'
aS'0'
aS'0.201'
p7325
aS'0'
aS'0'
asI584
(lp7326
S'0'
aS'0.81'
p7327
aS'0'
aS'0'
aS'0'
aS'0'
aS'0'
aS'0'
aS'0'
aS'0'
aS'0'
aS'0'
aS'0.593'
p7328
aS'0'
aS'0'
asI585
(lp7329
S'0'
aS'0'
aS'0'
aS'0'
aS'0'
aS'0'
aS'0'
aS'0'
aS'0'
aS'0'
aS'0'
aS'0.612'
p7330
aS'0'
aS'1'
aS'0'
asI586
(lp7331
S'0'
aS'0.665'
p7332
aS'0'
aS'0.335'
p7333
aS'0'
aS'0'
aS'0'
aS'0'
aS'0.342'
p7334
aS'0'
aS'0'
aS'0'
aS'0'
aS'0'
aS'0'
asI587
(lp7335
S'0'
aS'0'
aS'0'
aS'0'
aS'0'
aS'0'
aS'0'
aS'0'
aS'0'
aS'0'
aS'1'
aS'0'
aS'0'
aS'0'
aS'0'
asI591
(lp7336
S'0'
aS'0'
aS'0'
aS'0'
aS'0'
aS'0'
aS'0.661'
p7337
aS'0'
aS'0.339'
p7338
aS'0'
aS'0'
aS'0'
aS'0.661'
p7339
aS'0'
aS'0'
asI592
(lp7340
S'0'
aS'0'
aS'0'
aS'0'
aS'0'
aS'0'
aS'0'
aS'0'
aS'0'
aS'0'
aS'1'
aS'0'
aS'0'
aS'0'
aS'0'
asI593
(lp7341
S'0'
aS'0'
aS'0'
aS'0'
aS'0'
aS'0'
aS'0.502'
p7342
aS'0'
aS'0.498'
p7343
aS'0'
aS'0'
aS'0'
aS'0'
aS'0'
aS'0'
asI594
(lp7344
S'0'
aS'0'
aS'0'
aS'0'
aS'0'
aS'0'
aS'0'
aS'0'
aS'0'
aS'1'
aS'0'
aS'0'
aS'0'
aS'0'
aS'0'
asI595
(lp7345
S'0'
aS'0'
aS'0'
aS'0'
aS'1'
aS'0'
aS'0'
aS'0'
aS'0'
aS'0'
aS'0'
aS'0'
aS'0'
aS'0'
aS'0'
asI597
(lp7346
S'0'
aS'1'
aS'0'
aS'0'
aS'0'
aS'0'
aS'0'
aS'0'
aS'0'
aS'0'
aS'0'
aS'0'
aS'0'
aS'0'
aS'0'
asI598
(lp7347
S'0'
aS'0'
aS'0'
aS'0'
aS'0'
aS'0'
aS'0'
aS'0'
aS'0'
aS'0'
aS'0'
aS'1'
aS'0'
aS'0'
aS'0'
asI599
(lp7348
S'0.252'
p7349
aS'0'
aS'0'
aS'0'
aS'0'
aS'0'
aS'0'
aS'0'
aS'0'
aS'0'
aS'0'
aS'0'
aS'1'
aS'0'
aS'0'
asI600
(lp7350
S'0'
aS'0'
aS'0'
aS'0'
aS'0'
aS'0'
aS'0'
aS'0'
aS'0'
aS'0.793'
p7351
aS'0'
aS'0'
aS'0.207'
p7352
aS'0'
aS'0'
asI601
(lp7353
S'0'
aS'0'
aS'0'
aS'0'
aS'0'
aS'0'
aS'1'
aS'0'
aS'0'
aS'0'
aS'0'
aS'0'
aS'0'
aS'0'
aS'0'
asI602
(lp7354
S'0'
aS'0'
aS'0'
aS'0'
aS'0'
aS'0'
aS'0.606'
p7355
aS'0'
aS'0.394'
p7356
aS'0'
aS'0'
aS'0'
aS'0'
aS'0'
aS'0'
asI605
(lp7357
S'0'
aS'0.399'
p7358
aS'0'
aS'0.199'
p7359
aS'0'
aS'0'
aS'0.401'
p7360
aS'0'
aS'0'
aS'0'
aS'0'
aS'0'
aS'0.199'
p7361
aS'0'
aS'0'
asI607
(lp7362
S'0'
aS'0'
aS'0'
aS'0'
aS'0'
aS'0'
aS'0'
aS'0'
aS'0.195'
p7363
aS'0.607'
p7364
aS'0'
aS'0.8'
p7365
aS'0'
aS'0'
aS'0'
asI609
(lp7366
S'0'
aS'0'
aS'0'
aS'0'
aS'0'
aS'0'
aS'1'
aS'0'
aS'0'
aS'0'
aS'0'
aS'0'
aS'0'
aS'0'
aS'0'
asI610
(lp7367
S'0'
aS'0'
aS'0'
aS'1'
aS'0'
aS'0'
aS'0'
aS'0'
aS'0'
aS'0'
aS'0'
aS'0'
aS'0'
aS'0'
aS'0'
asI612
(lp7368
S'0'
aS'0'
aS'0'
aS'0'
aS'0'
aS'0'
aS'1'
aS'0'
aS'0'
aS'0'
aS'0'
aS'0'
aS'0'
aS'0'
aS'0'
asI613
(lp7369
S'0'
aS'0'
aS'0'
aS'0'
aS'0'
aS'0'
aS'0'
aS'0'
aS'0'
aS'0'
aS'0'
aS'1'
aS'0'
aS'0'
aS'0'
asI614
(lp7370
S'0'
aS'0'
aS'0'
aS'0.589'
p7371
aS'0'
aS'0'
aS'0.411'
p7372
aS'0'
aS'0.174'
p7373
aS'0'
aS'0'
aS'0'
aS'0'
aS'0'
aS'0'
asI618
(lp7374
S'0'
aS'0'
aS'0'
aS'0'
aS'0'
aS'0'
aS'0'
aS'0'
aS'0'
aS'0'
aS'0'
aS'1'
aS'0'
aS'0'
aS'0'
asI619
(lp7375
S'0'
aS'0'
aS'0'
aS'0'
aS'0'
aS'0'
aS'0'
aS'0'
aS'0'
aS'0.404'
p7376
aS'0'
aS'0'
aS'1'
aS'0'
aS'0'
asI622
(lp7377
S'0'
aS'1'
aS'0'
aS'0'
aS'0'
aS'0'
aS'0'
aS'0'
aS'0'
aS'0'
aS'0'
aS'0'
aS'0'
aS'0'
aS'0'
asI623
(lp7378
S'0'
aS'0'
aS'0'
aS'0'
aS'0'
aS'0'
aS'0'
aS'0'
aS'0'
aS'1'
aS'0'
aS'0'
aS'0'
aS'0'
aS'0'
asI625
(lp7379
S'0'
aS'0'
aS'0'
aS'0'
aS'0'
aS'0'
aS'0.495'
p7380
aS'0'
aS'0.505'
p7381
aS'0.505'
p7382
aS'0.505'
p7383
aS'0'
aS'0'
aS'0'
aS'0'
asI627
(lp7384
S'0'
aS'0'
aS'0'
aS'0'
aS'0'
aS'0'
aS'0'
aS'0'
aS'0'
aS'1'
aS'0'
aS'0.203'
p7385
aS'0'
aS'0'
aS'0'
asI628
(lp7386
S'0'
aS'0'
aS'0'
aS'0.419'
p7387
aS'1'
aS'0'
aS'0'
aS'0'
aS'0'
aS'0'
aS'0'
aS'0'
aS'0.209'
p7388
aS'0'
aS'0'
asI630
(lp7389
S'0'
aS'0'
aS'0'
aS'0'
aS'0'
aS'0'
aS'0'
aS'0'
aS'0'
aS'0'
aS'0'
aS'0'
aS'1'
aS'0'
aS'0'
asI631
(lp7390
S'0'
aS'0'
aS'0'
aS'0'
aS'0'
aS'0'
aS'1'
aS'0'
aS'0'
aS'0'
aS'0'
aS'0'
aS'0'
aS'0'
aS'0'
asI632
(lp7391
S'0'
aS'0'
aS'0'
aS'0'
aS'0'
aS'0'
aS'0.205'
p7392
aS'0'
aS'0.398'
p7393
aS'0.205'
p7394
aS'0'
aS'0.191'
p7395
aS'0'
aS'0'
aS'0'
asI633
(lp7396
S'0'
aS'0'
aS'0'
aS'1'
aS'0'
aS'0'
aS'0'
aS'0'
aS'0'
aS'0'
aS'0'
aS'0'
aS'0'
aS'0'
aS'0'
asI635
(lp7397
S'0.207'
p7398
aS'0'
aS'0'
aS'0'
aS'0'
aS'0'
aS'0'
aS'0'
aS'0'
aS'0'
aS'0'
aS'0'
aS'0.793'
p7399
aS'0'
aS'0'
asI636
(lp7400
S'0'
aS'0'
aS'0'
aS'0'
aS'0'
aS'0'
aS'0.195'
p7401
aS'0'
aS'0'
aS'0.199'
p7402
aS'0'
aS'0.618'
p7403
aS'0.187'
p7404
aS'0'
aS'0'
asI638
(lp7405
S'0'
aS'1'
aS'0'
aS'0'
aS'0'
aS'0'
aS'0'
aS'0'
aS'0'
aS'0'
aS'0'
aS'0'
aS'0'
aS'0'
aS'0'
asI640
(lp7406
S'0'
aS'0'
aS'0'
aS'0'
aS'1'
aS'0'
aS'0'
aS'0'
aS'0'
aS'0'
aS'0'
aS'0'
aS'0'
aS'0'
aS'0.805'
p7407
asI642
(lp7408
S'0'
aS'0'
aS'0'
aS'0'
aS'0'
aS'0'
aS'1'
aS'0'
aS'0'
aS'0'
aS'0'
aS'0'
aS'0'
aS'0'
aS'0'
asI645
(lp7409
S'0'
aS'0'
aS'0'
aS'0'
aS'0'
aS'0'
aS'0'
aS'0'
aS'0'
aS'0'
aS'0'
aS'0'
aS'1'
aS'0'
aS'0'
asI646
(lp7410
S'0'
aS'0'
aS'0'
aS'0'
aS'0'
aS'0'
aS'1'
aS'0'
aS'0'
aS'0'
aS'0'
aS'0'
aS'0'
aS'0'
aS'0'
asI648
(lp7411
S'0.139'
p7412
aS'0'
aS'0'
aS'0'
aS'0'
aS'0'
aS'0'
aS'0'
aS'0'
aS'1'
aS'0'
aS'0'
aS'0'
aS'0'
aS'0'
asI649
(lp7413
S'0.799'
p7414
aS'0'
aS'0'
aS'0'
aS'0'
aS'0'
aS'0'
aS'0'
aS'0'
aS'0.593'
p7415
aS'0'
aS'0.823'
p7416
aS'0'
aS'0'
aS'0'
asI650
(lp7417
S'0.209'
p7418
aS'0'
aS'0'
aS'0'
aS'0'
aS'0'
aS'0'
aS'0'
aS'0'
aS'1'
aS'0'
aS'0'
aS'0'
aS'0'
aS'0'
asI651
(lp7419
S'0'
aS'0'
aS'0'
aS'0'
aS'0'
aS'0'
aS'0.759'
p7420
aS'0'
aS'0'
aS'0.241'
p7421
aS'0'
aS'0'
aS'0'
aS'0'
aS'0'
asI652
(lp7422
S'0'
aS'0'
aS'0'
aS'1'
aS'0'
aS'0'
aS'0'
aS'0'
aS'0'
aS'0'
aS'0'
aS'0'
aS'0'
aS'0'
aS'0'
asI653
(lp7423
S'0'
aS'0'
aS'0'
aS'0'
aS'0'
aS'0'
aS'1'
aS'0'
aS'0'
aS'0'
aS'0'
aS'0'
aS'0'
aS'0'
aS'0'
asI654
(lp7424
S'0'
aS'0'
aS'0'
aS'0'
aS'0'
aS'0'
aS'1'
aS'0'
aS'0'
aS'0'
aS'0'
aS'0'
aS'0'
aS'0'
aS'0'
asI657
(lp7425
S'0'
aS'0'
aS'0'
aS'0'
aS'0'
aS'0'
aS'0'
aS'0'
aS'0'
aS'0'
aS'1'
aS'0'
aS'0'
aS'0'
aS'0'
asI658
(lp7426
S'0'
aS'0'
aS'0'
aS'0'
aS'0'
aS'0'
aS'0.193'
p7427
aS'0'
aS'0.195'
p7428
aS'0.612'
p7429
aS'0'
aS'0'
aS'0'
aS'0'
aS'0'
asI659
(lp7430
S'0'
aS'0'
aS'0'
aS'0'
aS'0'
aS'0'
aS'0.802'
p7431
aS'0'
aS'0.198'
p7432
aS'0'
aS'0'
aS'0'
aS'0.198'
p7433
aS'0'
aS'0'
asI660
(lp7434
S'0'
aS'0'
aS'0'
aS'0.828'
p7435
aS'0'
aS'0'
aS'0'
aS'0'
aS'0.172'
p7436
aS'0'
aS'0'
aS'0'
aS'0'
aS'0'
aS'0'
asI661
(lp7437
S'0'
aS'0'
aS'0'
aS'1'
aS'0'
aS'0'
aS'0'
aS'0'
aS'0'
aS'0.599'
p7438
aS'0'
aS'0'
aS'1'
aS'0'
aS'0'
asI662
(lp7439
S'0'
aS'0'
aS'0'
aS'0'
aS'0'
aS'0'
aS'0.755'
p7440
aS'0'
aS'0.245'
p7441
aS'0'
aS'0'
aS'0'
aS'0'
aS'0'
aS'0'
asI663
(lp7442
S'0'
aS'0'
aS'0'
aS'0'
aS'0'
aS'0'
aS'0'
aS'0'
aS'0'
aS'0'
aS'0'
aS'0'
aS'0'
aS'0'
aS'1'
asI665
(lp7443
S'0'
aS'0'
aS'0'
aS'0'
aS'0'
aS'0'
aS'0'
aS'0'
aS'0'
aS'0'
aS'0'
aS'0'
aS'1'
aS'0'
aS'0'
asI666
(lp7444
S'0'
aS'0'
aS'0'
aS'0.259'
p7445
aS'1'
aS'0'
aS'0'
aS'0'
aS'0'
aS'0'
aS'0'
aS'0'
aS'0'
aS'0'
aS'0'
asI670
(lp7446
S'0'
aS'0'
aS'0'
aS'0.205'
p7447
aS'0'
aS'0'
aS'0.795'
p7448
aS'0'
aS'0'
aS'0'
aS'0'
aS'0'
aS'0.205'
p7449
aS'0'
aS'0'
asI671
(lp7450
S'0'
aS'0'
aS'0'
aS'1'
aS'0'
aS'0'
aS'0'
aS'0'
aS'0'
aS'0'
aS'0'
aS'0'
aS'0'
aS'0'
aS'0'
asI674
(lp7451
S'0'
aS'0'
aS'0'
aS'0.392'
p7452
aS'0'
aS'0'
aS'0'
aS'0'
aS'0'
aS'0'
aS'0'
aS'0'
aS'1'
aS'0'
aS'0'
asI675
(lp7453
S'0'
aS'0'
aS'0'
aS'0.801'
p7454
aS'0'
aS'0'
aS'0.199'
p7455
aS'0'
aS'0'
aS'0'
aS'0'
aS'0'
aS'0'
aS'0'
aS'0'
asI677
(lp7456
S'0'
aS'1'
aS'0'
aS'0'
aS'0'
aS'0'
aS'0'
aS'0'
aS'0'
aS'0'
aS'0'
aS'0'
aS'0'
aS'0'
aS'0'
asI679
(lp7457
S'0.202'
p7458
aS'0'
aS'0'
aS'0'
aS'0'
aS'0'
aS'0'
aS'0'
aS'0'
aS'0.202'
p7459
aS'0'
aS'1'
aS'0'
aS'0'
aS'0'
asI680
(lp7460
S'0.415'
p7461
aS'0'
aS'0'
aS'0'
aS'0'
aS'0'
aS'0.187'
p7462
aS'0'
aS'0'
aS'0'
aS'0'
aS'0'
aS'0'
aS'0'
aS'0.813'
p7463
asI681
(lp7464
S'0'
aS'0'
aS'0'
aS'0'
aS'0'
aS'0'
aS'0'
aS'0'
aS'0'
aS'0'
aS'0.197'
p7465
aS'0.803'
p7466
aS'0'
aS'0'
aS'0'
asI685
(lp7467
S'0'
aS'0'
aS'0'
aS'0'
aS'0'
aS'0'
aS'1'
aS'0'
aS'0'
aS'0'
aS'0'
aS'0'
aS'0'
aS'0'
aS'0'
asI686
(lp7468
S'0'
aS'0.411'
p7469
aS'0'
aS'0'
aS'0'
aS'0'
aS'0.401'
p7470
aS'0'
aS'0.188'
p7471
aS'0'
aS'0'
aS'0'
aS'0'
aS'0'
aS'0'
asI687
(lp7472
S'0'
aS'0'
aS'0'
aS'0'
aS'0'
aS'0'
aS'0.583'
p7473
aS'0'
aS'0.208'
p7474
aS'0'
aS'0'
aS'0'
aS'0.208'
p7475
aS'0'
aS'0'
asI689
(lp7476
S'0'
aS'0'
aS'0'
aS'0'
aS'0'
aS'0'
aS'0'
aS'0'
aS'0'
aS'0'
aS'0'
aS'1'
aS'0'
aS'0'
aS'0'
asI690
(lp7477
S'0'
aS'0'
aS'0'
aS'0'
aS'0'
aS'0'
aS'0'
aS'0'
aS'0'
aS'0'
aS'0'
aS'1'
aS'0'
aS'0'
aS'0'
asI691
(lp7478
S'0'
aS'0'
aS'0'
aS'0.21'
p7479
aS'0'
aS'0'
aS'0'
aS'0'
aS'0.4'
p7480
aS'0'
aS'0'
aS'0'
aS'0.801'
p7481
aS'0'
aS'0'
asI692
(lp7482
S'0'
aS'0'
aS'0'
aS'0'
aS'0'
aS'0'
aS'0'
aS'0'
aS'0'
aS'0.824'
p7483
aS'0'
aS'0'
aS'0.582'
p7484
aS'0'
aS'0'
asI694
(lp7485
S'0'
aS'0'
aS'0'
aS'0'
aS'0'
aS'0'
aS'0'
aS'0.259'
p7486
aS'0.529'
p7487
aS'0'
aS'0'
aS'0.736'
p7488
aS'0'
aS'0'
aS'0'
asI696
(lp7489
S'0'
aS'0'
aS'0'
aS'1'
aS'0'
aS'0'
aS'0'
aS'0'
aS'0'
aS'0'
aS'0'
aS'0'
aS'0'
aS'0'
aS'0'
asI698
(lp7490
S'0'
aS'0'
aS'0'
aS'0'
aS'0'
aS'0'
aS'1'
aS'0'
aS'0'
aS'0'
aS'0'
aS'0'
aS'0'
aS'0'
aS'0'
asI699
(lp7491
S'0'
aS'0'
aS'0'
aS'0'
aS'0'
aS'0'
aS'1'
aS'0'
aS'0'
aS'0'
aS'0'
aS'0'
aS'0'
aS'0'
aS'0'
asI700
(lp7492
S'0'
aS'0.382'
p7493
aS'0'
aS'0'
aS'0'
aS'0'
aS'0.618'
p7494
aS'0'
aS'0'
aS'0'
aS'0'
aS'0'
aS'0'
aS'0'
aS'0'
asI702
(lp7495
S'0'
aS'0'
aS'0'
aS'0'
aS'0'
aS'0'
aS'1'
aS'0'
aS'0'
aS'0'
aS'0'
aS'0'
aS'0'
aS'0'
aS'0'
asI703
(lp7496
S'0'
aS'0'
aS'0'
aS'0'
aS'0'
aS'0'
aS'1'
aS'0'
aS'0'
aS'0'
aS'0'
aS'0'
aS'0'
aS'0'
aS'0'
asI704
(lp7497
S'0'
aS'0.699'
p7498
aS'0'
aS'0'
aS'0'
aS'0'
aS'0.301'
p7499
aS'0'
aS'0'
aS'0'
aS'0'
aS'0'
aS'0'
aS'0'
aS'0'
asI708
(lp7500
S'0.6'
p7501
aS'0'
aS'0'
aS'0'
aS'0'
aS'0'
aS'0.193'
p7502
aS'0'
aS'0.207'
p7503
aS'0'
aS'0'
aS'0'
aS'0'
aS'0'
aS'0'
asI712
(lp7504
S'0'
aS'0'
aS'0'
aS'0'
aS'0'
aS'0'
aS'0'
aS'0'
aS'0'
aS'1'
aS'0'
aS'0'
aS'0'
aS'0'
aS'0'
asI714
(lp7505
S'0'
aS'0'
aS'0'
aS'0'
aS'0'
aS'0'
aS'0.658'
p7506
aS'0'
aS'0.342'
p7507
aS'0'
aS'0'
aS'0'
aS'0'
aS'0'
aS'0'
asI715
(lp7508
S'0'
aS'0'
aS'0'
aS'0'
aS'0'
aS'0'
aS'0'
aS'0'
aS'0'
aS'0'
aS'0'
aS'0'
aS'0'
aS'0'
aS'1'
asI716
(lp7509
S'0'
aS'0'
aS'0'
aS'0'
aS'0'
aS'0'
aS'0'
aS'0'
aS'0.206'
p7510
aS'0'
aS'0'
aS'0.794'
p7511
aS'0'
aS'0'
aS'0'
asI717
(lp7512
S'0'
aS'0.264'
p7513
aS'0'
aS'0.255'
p7514
aS'0'
aS'0'
aS'0.48'
p7515
aS'0'
aS'0'
aS'0'
aS'0'
aS'0'
aS'0'
aS'0'
aS'0'
asI721
(lp7516
S'0'
aS'0'
aS'0'
aS'0'
aS'0'
aS'0'
aS'0'
aS'0'
aS'1'
aS'0'
aS'0'
aS'0'
aS'0'
aS'0'
aS'0'
asI723
(lp7517
S'0'
aS'0'
aS'0'
aS'0'
aS'0'
aS'0'
aS'0'
aS'0'
aS'0'
aS'0.806'
p7518
aS'0'
aS'0'
aS'0'
aS'0'
aS'1'
asI724
(lp7519
S'0'
aS'0'
aS'0'
aS'0.415'
p7520
aS'0.606'
p7521
aS'0'
aS'0.394'
p7522
aS'0'
aS'0.191'
p7523
aS'0'
aS'0'
aS'0'
aS'0'
aS'0'
aS'0.606'
p7524
asI725
(lp7525
S'0'
aS'0'
aS'0'
aS'0.316'
p7526
aS'0.513'
p7527
aS'0'
aS'0.149'
p7528
aS'0'
aS'0.184'
p7529
aS'0'
aS'0'
aS'0'
aS'0'
aS'0'
aS'0.666'
p7530
asI726
(lp7531
S'0'
aS'0'
aS'0'
aS'0'
aS'0'
aS'0'
aS'1'
aS'0'
aS'0'
aS'0'
aS'0'
aS'0'
aS'0'
aS'0'
aS'0'
asI727
(lp7532
S'0'
aS'0'
aS'0'
aS'1'
aS'0'
aS'0'
aS'0'
aS'0'
aS'0'
aS'0'
aS'0'
aS'0'
aS'0'
aS'0'
aS'0'
asI729
(lp7533
S'0'
aS'0'
aS'0'
aS'0'
aS'0'
aS'0'
aS'1'
aS'0'
aS'0'
aS'0'
aS'0'
aS'0'
aS'0'
aS'0'
aS'0'
asI730
(lp7534
S'0'
aS'0'
aS'0'
aS'0'
aS'0'
aS'0'
aS'0'
aS'0'
aS'0'
aS'0'
aS'0'
aS'1'
aS'0'
aS'0'
aS'0'
asI731
(lp7535
S'0'
aS'0'
aS'0'
aS'0'
aS'0'
aS'0'
aS'1'
aS'0'
aS'0'
aS'0'
aS'0'
aS'0'
aS'0'
aS'0'
aS'0'
asI732
(lp7536
S'0'
aS'0'
aS'0'
aS'0'
aS'0'
aS'0'
aS'0.188'
p7537
aS'0'
aS'0.21'
p7538
aS'0'
aS'0'
aS'0.812'
p7539
aS'0'
aS'0'
aS'0'
asI733
(lp7540
S'0'
aS'0'
aS'0'
aS'0'
aS'0'
aS'0'
aS'0'
aS'0'
aS'0'
aS'0'
aS'0'
aS'0'
aS'1'
aS'0'
aS'0'
asI735
(lp7541
S'0'
aS'0'
aS'0'
aS'0.509'
p7542
aS'0'
aS'0'
aS'0'
aS'0'
aS'0'
aS'0'
aS'0'
aS'0'
aS'1'
aS'0'
aS'0'
asI736
(lp7543
S'0'
aS'1'
aS'0'
aS'0'
aS'0'
aS'0'
aS'0'
aS'0'
aS'0'
aS'0'
aS'0'
aS'0'
aS'0'
aS'0'
aS'0'
asI737
(lp7544
S'0'
aS'0'
aS'0'
aS'0'
aS'0'
aS'0'
aS'0'
aS'0'
aS'0'
aS'0.201'
p7545
aS'0'
aS'1'
aS'0'
aS'0'
aS'0'
asI738
(lp7546
S'0'
aS'0'
aS'0'
aS'0'
aS'0'
aS'0'
aS'0'
aS'0'
aS'0'
aS'0'
aS'0'
aS'1'
aS'0'
aS'0'
aS'0'
asa.